(dp0
S'livestock'
p1
(i__main__
WordWeight
p2
(dp3
S'wordWeights'
p4
(dp5
S'livestock'
p6
I3400
sS'house'
p7
I50
sS'mediterranean'
p8
I50
sS'hearing'
p9
I50
sS'subcommittee'
p10
I50
sS'japan'
p11
I150
sS'allowances'
p12
I50
sS'market'
p13
I50
sS'barney'
p14
I50
sS'lehman'
p15
I50
sS'representatives'
p16
I50
sS'conditions'
p17
I50
sS'direction'
p18
I50
sS'federation'
p19
I50
sS'ame'
p20
I100
sS'effect'
p21
I50
sS'mixed'
p22
I50
sS'negative'
p23
I100
sS'semi-government'
p24
I100
sS'meat'
p25
I200
sS'grains'
p26
I50
sS'pest'
p27
I50
sS'gidel'
p28
I50
sS'berman'
p29
I50
sS'breeder'
p30
I100
ssS'topicWord'
p31
S''
p32
sS'topicWords'
p33
(lp34
sbsS'gold'
p35
(i__main__
WordWeight
p36
(dp37
g4
(dp38
S'quebec'
p39
I50
sS'gold'
p40
I53900
sS'yen'
p41
I150
sS'issued'
p42
I50
sS'move'
p43
I100
sS'expects'
p44
I200
sS'abm'
p45
I200
sS'discovered'
p46
I100
sS'prices'
p47
I50
sS'ivanhoe'
p48
I50
sS'london'
p49
I150
sS'predicts'
p50
I50
sS'ounces'
p51
I3050
sS'longer'
p52
I50
sS'boosts'
p53
I50
sS'impact'
p54
I50
sS'current'
p55
I100
sS'promote'
p56
I100
sS'based'
p57
I50
sS'pope'
p58
I50
sS'merc'
p59
I50
sS'ore-rich'
p60
I50
sS'carat'
p61
I100
sS'lake'
p62
I100
sS'pct'
p63
I200
sS'production'
p64
I300
sS'enriched'
p65
I100
sS'consolidated'
p66
I50
sS'include'
p67
I50
sS'thousands'
p68
I50
sS'remaining'
p69
I50
sS'impose'
p70
I50
sS'build'
p71
I50
sS'ghana'
p72
I100
sS'australia'
p73
I50
sS'return'
p74
I100
sS'advantage'
p75
I50
sS'bonds'
p76
I100
sS'cannon'
p77
I50
sS'number'
p78
I50
sS'increases'
p79
I100
sS'pegasus'
p80
I150
sS'"britannia"'
p81
I100
sS'joins'
p82
I100
sS'world'
p83
I50
sS'month'
p84
I50
sS'sonora'
p85
I50
sS'volatility'
p86
I100
sS'trades'
p87
I50
sS'importer'
p88
I50
sS'nugget'
p89
I100
sS'mint'
p90
I50
sS'tokyo'
p91
I50
sS'large'
p92
I50
sS'paper'
p93
I100
sS'grammes'
p94
I150
sS'river'
p95
I100
sS'cme'
p96
I50
sS'indosuez'
p97
I50
sS'heavy'
p98
I100
sS'bars'
p99
I50
sS'smaller'
p100
I50
sS'disaster'
p101
I50
sS'glitter'
p102
I50
sS'kilo'
p103
I50
sS'dealers'
p104
I50
sS'competition'
p105
I50
sS'tyranex'
p106
I100
sS'relative'
p107
I100
sS'today'
p108
I50
sS'trading'
p109
I50
sS'sulfide'
p110
I50
sS'year'
p111
I50
sS'operated'
p112
I50
sS'margins'
p113
I50
sS'investment'
p114
I50
sS'newmont'
p115
I350
sS'brazil'
p116
I50
sS'nevada'
p117
I100
sS'encouraging'
p118
I50
sS'kma'
p119
I50
sS'intersected'
p120
I50
sS'open'
p121
I50
sS'exchange'
p122
I50
sS'mines'
p123
I50
sS'publish'
p124
I50
sS'spokesman'
p125
I50
sS'dlr'
p126
I100
sS'state'
p127
I100
sS'hill'
p128
I150
sS'fimiston'
p129
I50
sS'mined'
p130
I50
sS'issue'
p131
I50
sS'public'
p132
I50
sS'shows'
p133
I50
sS'eagle'
p134
I200
sS'terms'
p135
I150
sS'adding'
p136
I100
sS'u.s.'
p137
I150
sS're-introduces'
p138
I50
sS'commercial'
p139
I100
sS'richest'
p140
I50
sS'residual'
p141
I50
sS'ecu'
p142
I50
sS'concentrate'
p143
I50
sS'corp'
p144
I50
sS'joe'
p145
I400
sS'ratio'
p146
I100
sS'buy'
p147
I300
sS'ore'
p148
I50
sS'issuing'
p149
I50
sS'change'
p150
I50
sS'dlrs'
p151
I200
sS'improved'
p152
I50
sS'misima'
p153
I100
sS'created'
p154
I50
sS'larger'
p155
I50
sS'british'
p156
I200
sS'foreign'
p157
I100
sS'resurrect'
p158
I50
sS'amount'
p159
I100
sS'important'
p160
I50
sS'period'
p161
I50
sS'analysts'
p162
I200
sS'bond'
p163
I100
sS'york'
p164
I50
sS'copper'
p165
I50
sS'major'
p166
I100
sS'tse'
p167
I50
sS'bell'
p168
I100
sS'grade'
p169
I50
sS'warrants'
p170
I150
sS'float'
p171
I50
sS'africa'
p172
I150
sS're-checked'
p173
I100
sS'owned'
p174
I50
sS'patricia'
p175
I100
sS'sees'
p176
I50
sS'total'
p177
I100
sS'quality'
p178
I50
sS'unit'
p179
I50
sS'open-pit'
p180
I50
sS'decline'
p181
I50
sS'additional'
p182
I50
sS'basis'
p183
I50
sS'introduction'
p184
I50
sS'gooseberry'
p185
I50
sS'initial'
p186
I50
sS'hemlo'
p187
I50
sS'start'
p188
I100
sS'reduction'
p189
I100
sS'ton'
p190
I250
sS'interest'
p191
I300
sS'december'
p192
I50
sS'show'
p193
I50
sS'microscopic'
p194
I50
sS'australian'
p195
I100
sS'recovered'
p196
I50
sS'interests'
p197
I100
sS'leach'
p198
I100
sS'selling'
p199
I50
sS'peru'
p200
I150
sS'successful'
p201
I50
sS'delivery'
p202
I50
sS'understand'
p203
I50
sS'metals'
p204
I50
sS'catch'
p205
I50
sS'acquiring'
p206
I100
sS'hold'
p207
I50
sS'homestake'
p208
I100
sS'png'
p209
I50
sS'canadian'
p210
I50
sS'october'
p211
I50
sS'citibank'
p212
I50
sS'double'
p213
I50
sS'ride'
p214
I50
sS'bill'
p215
I100
sS'believes'
p216
I100
sS'commissioned'
p217
I50
sS'gunnar'
p218
I200
sS'alluvial'
p219
I50
sS'venture'
p220
I50
sS'participants'
p221
I50
sS'launched'
p222
I100
sS'extracting'
p223
I100
sS'tonne'
p224
I50
sS'uncertainty'
p225
I50
sS'intersects'
p226
I50
sS'imports'
p227
I50
sS'pounds'
p228
I50
sS'tax'
p229
I100
sS'proven'
p230
I50
sS'encountered'
p231
I100
sS'<lvnvf>'
p232
I50
sS'reserves'
p233
I100
sS'tyranite'
p234
I200
sS'daily'
p235
I50
sS'cbt'
p236
I50
sS'rally'
p237
I50
sS'claimed'
p238
I50
sS'bhp'
p239
I200
sS'recover'
p240
I100
sS'seek'
p241
I50
sS'physical'
p242
I200
sS'sell'
p243
I100
sS'united'
p244
I50
sS'recovery'
p245
I50
sS'locates'
p246
I50
sS'buoyant'
p247
I50
sS'stake'
p248
I50
sS'american'
p249
I100
sS'march'
p250
I100
sS'equipment'
p251
I50
sS'ounce'
p252
I2400
sS'details'
p253
I200
sS'influences'
p254
I100
sS'largest'
p255
I150
sS'department'
p256
I100
sS'mccoy'
p257
I100
sS'idaho'
p258
I100
sS'higher'
p259
I250
sS'canada'
p260
I50
sS'added'
p261
I50
sS'transactions'
p262
I50
sS'price'
p263
I300
sS'lag'
p264
I50
sS'spot'
p265
I50
sS'assayed'
p266
I50
sS'develops'
p267
I50
sS'produce'
p268
I50
sS'significant'
p269
I100
sS'remarks'
p270
I50
sS'anticipated'
p271
I100
sS'carries'
p272
I50
sS'bankrupt'
p273
I50
sS'billion'
p274
I100
sS'grams'
p275
I100
sS'calls'
p276
I100
sS'sets'
p277
I50
sS'futures'
p278
I50
sS'grootvlei'
p279
I150
sS'commodities'
p280
I50
sS'city'
p281
I100
sS'african'
p282
I200
sS'tonnes'
p283
I400
sS'latest'
p284
I100
ssg31
g32
sg33
(lp285
sbsS'yen'
p286
(i__main__
WordWeight
p287
(dp288
g4
(dp289
S'hovered'
p290
I50
sS'yen'
p291
I24550
sS'isolated,'
p292
I50
sS'move'
p293
I50
sS'dollar'
p294
I650
sS'satisfied'
p295
I250
sS'report'
p296
I50
sS'london'
p297
I50
sS'japan'
p298
I100
sS'rose'
p299
I50
sS'pct'
p300
I200
sS'restrain'
p301
I50
sS'weakening'
p302
I50
sS'marks'
p303
I150
sS'worth'
p304
I50
sS'happened'
p305
I150
sS'portfolios'
p306
I50
sS'rise'
p307
I500
sS'stop'
p308
I50
sS'bear'
p309
I50
sS'suffering'
p310
I100
sS'effects'
p311
I50
sS'fall'
p312
I150
sS'buyer'
p313
I50
sS'bank'
p314
I150
sS'level'
p315
I150
sS'endorses'
p316
I50
sS'dipping'
p317
I50
sS'bad'
p318
I100
sS'dip'
p319
I50
sS'sank'
p320
I50
sS'prevent'
p321
I200
sS'reference'
p322
I50
sS'japanese'
p323
I100
sS'rate'
p324
I50
sS'growth'
p325
I50
sS'trading'
p326
I200
sS'election'
p327
I50
sS'opened'
p328
I100
sS'current'
p329
I50
sS'closed'
p330
I200
sS'movement'
p331
I50
sS'keidanren'
p332
I150
sS'run'
p333
I50
sS'risen'
p334
I50
sS'opening'
p335
I50
sS'shakey'
p336
I50
sS'sold'
p337
I150
sS'teishoku'
p338
I50
sS'believed'
p339
I50
sS'ecu'
p340
I100
sS'extent'
p341
I50
sS'active'
p342
I50
sS'reporters'
p343
I100
sS'strong'
p344
I150
sS'dlrs'
p345
I50
sS'launch'
p346
I50
sS'dollars'
p347
I400
sS'internationalisation'
p348
I100
sS'range'
p349
I50
sS'involving'
p350
I100
sS'tariffs'
p351
I50
sS'traded'
p352
I50
sS'point'
p353
I100
sS'semiconductors'
p354
I50
sS'wages'
p355
I100
sS'conference'
p356
I50
sS'story'
p357
I50
sS'necessarily'
p358
I100
sS'142.85'
p359
I50
sS'top'
p360
I50
sS'rebounded'
p361
I50
sS'mark'
p362
I50
sS'commission'
p363
I50
sS'rates'
p364
I150
sS'countries'
p365
I50
sS'war'
p366
I50
sS'today'
p367
I50
sS'ceiling'
p368
I50
sS'selling'
p369
I150
sS'listing'
p370
I50
sS'lows'
p371
I50
sS'demand'
p372
I50
sS'present'
p373
I100
sS'peaked'
p374
I100
sS'ride'
p375
I50
sS'cash'
p376
I50
sS'levels'
p377
I100
sS'liffe'
p378
I50
sS'record'
p379
I200
sS'promoted'
p380
I50
sS'post-war'
p381
I50
sS'150'
p382
I100
sS'strengthening'
p383
I100
sS'outstanding'
p384
I50
sS'imports'
p385
I100
sS'rally'
p386
I50
sS'ortner'
p387
I100
sS'sells'
p388
I50
sS'sell'
p389
I150
sS'143.55'
p390
I50
sS'horner'
p391
I50
sS'miyazawa'
p392
I100
sS'regard'
p393
I150
sS'intervened'
p394
I50
sS'watch'
p395
I50
sS'june'
p396
I100
sS'fell'
p397
I250
sS'moving'
p398
I100
sS'multiply'
p399
I50
sS'billion'
p400
I300
sS'sumita'
p401
I150
sS'short'
p402
I50
sS'dealers'
p403
I50
sS'slightly'
p404
I50
sS'stronger'
p405
I50
sS'sale'
p406
I50
sS'thought'
p407
I50
sS'147.30'
p408
I50
sS'maintain'
p409
I50
sS'sets'
p410
I50
sS'push'
p411
I50
sS'overseas'
p412
I50
sS'spend'
p413
I50
sS'profits'
p414
I100
ssg31
g32
sg33
(lp415
sbsS'money'
p416
(i__main__
WordWeight
p417
(dp418
g4
(dp419
S'concept'
p420
I50
sS'todays'
p421
I50
sS'surplus'
p422
I150
sS'yen'
p423
I100
sS'german'
p424
I350
sS'money'
p425
I83900
sS'pointed'
p426
I50
sS'fall'
p427
I50
sS'domestic'
p428
I300
sS'u.k.'
p429
I5200
sS'month'
p430
I150
sS'h.k.'
p431
I50
sS'manager'
p432
I50
sS'session'
p433
I50
sS'london'
p434
I50
sS"spain's"
p435
I50
sS'day-to-day'
p436
I50
sS'carefully'
p437
I100
sS'excessive'
p438
I50
sS'taiwan'
p439
I150
sS'put'
p440
I100
sS'wage'
p441
I50
sS'spokesman'
p442
I50
sS'indicator'
p443
I150
sS'cut'
p444
I150
sS'based'
p445
I50
sS'gulf'
p446
I100
sS'imf'
p447
I50
sS'n.z.'
p448
I100
sS'restraining'
p449
I100
sS'deposits'
p450
I50
sS'pct'
p451
I800
sS'late'
p452
I50
sS'add'
p453
I50
sS'causing'
p454
I50
sS'broadly-defined'
p455
I50
sS'policy'
p456
I100
sS'weeks'
p457
I150
sS'main'
p458
I200
sS'gave'
p459
I250
sS'exports'
p460
I50
sS'australia'
p461
I100
sS'march'
p462
I200
sS'government'
p463
I50
sS'big'
p464
I50
sS'rise'
p465
I150
sS'february'
p466
I100
sS'focus'
p467
I50
sS'early'
p468
I100
sS'inflation'
p469
I100
sS'hands'
p470
I100
sS'world'
p471
I150
sS'nation'
p472
I100
sS'japan'
p473
I100
sS'bank'
p474
I1400
sS'ruled'
p475
I50
sS'term'
p476
I150
sS'measures'
p477
I100
sS'held'
p478
I50
sS'january'
p479
I150
sS'intervene'
p480
I150
sS'borrow'
p481
I50
sS'worried'
p482
I100
sS'six-month'
p483
I50
sS'paper'
p484
I100
sS'shortage'
p485
I350
sS'small'
p486
I50
sS'rein'
p487
I150
sS'higher'
p488
I50
sS'noted'
p489
I100
sS'added'
p490
I100
sS'prevailing'
p491
I50
sS'sterling'
p492
I50
sS'drop'
p493
I50
sS'england'
p494
I1950
sS'series'
p495
I100
sS'brake'
p496
I100
sS'revised'
p497
I50
sS'japanese'
p498
I100
sS'slowdown'
p499
I300
sS'slowed'
p500
I50
sS'growth'
p501
I700
sS'expect'
p502
I100
sS'borrowings'
p503
I50
sS'measure'
p504
I700
sS'tender'
p505
I150
sS'includes'
p506
I100
sS'expects'
p507
I50
sS'short-term'
p508
I200
sS'danger'
p509
I100
sS'large'
p510
I100
sS'relieving'
p511
I100
sS'factors'
p512
I50
sS'broad'
p513
I550
sS'assistance'
p514
I100
sS'projected'
p515
I150
sS'current'
p516
I50
sS'targeted'
p517
I100
sS'deficit'
p518
I100
sS'dutch'
p519
I300
sS'lowered'
p520
I50
sS'conditions'
p521
I50
sS'public'
p522
I100
sS'announced'
p523
I50
sS'impact'
p524
I50
sS'korea'
p525
I100
sS'belief'
p526
I50
sS'implying'
p527
I50
sS'wayward'
p528
I50
sS'retains'
p529
I100
sS'u.s.'
p530
I250
sS'attention'
p531
I100
sS'threatened'
p532
I50
sS'broadly-based'
p533
I100
sS'wednesday'
p534
I50
sS'expansion'
p535
I100
sS'pressure'
p536
I100
sS'rapid'
p537
I200
sS'french'
p538
I50
sS'key'
p539
I100
sS'excess'
p540
I50
sS'active'
p541
I50
sS'thailand'
p542
I50
sS'strong'
p543
I100
sS'steering'
p544
I50
sS'bangladesh'
p545
I50
sS'expanding'
p546
I50
sS'changing'
p547
I50
sS'quarter'
p548
I50
sS'canadian'
p549
I600
sS'broad-based'
p550
I100
sS'leaves'
p551
I100
sS'annual'
p552
I50
sS'introduces'
p553
I50
sS'range'
p554
I50
sS'survey'
p555
I100
sS'analysts'
p556
I100
sS'act'
p557
I50
sS'narrow'
p558
I300
sS'expansionary'
p559
I150
sS'adjusted'
p560
I200
sS'economists'
p561
I350
sS'supply'
p562
I50
sS'overshoot'
p563
I50
sS'boosting'
p564
I50
sS'encouraging'
p565
I50
sS'houses'
p566
I100
sS'losing'
p567
I50
sS'set'
p568
I100
sS'weak'
p569
I100
sS'spanish'
p570
I100
sS'slower'
p571
I100
sS'total'
p572
I100
sS'tomorrow'
p573
I100
sS'cost'
p574
I50
sS'fed'
p575
I50
sS'officials'
p576
I50
sS'raise'
p577
I50
sS'prove'
p578
I50
sS'economist'
p579
I50
sS'france'
p580
I100
sS'fuelling'
p581
I50
sS'reduction'
p582
I50
sS'call'
p583
I2650
sS'interest'
p584
I50
sS'declines'
p585
I50
sS'expected'
p586
I150
sS'rates'
p587
I400
sS'meeting'
p588
I50
sS'today'
p589
I350
sS'belgian'
p590
I50
sS'offering'
p591
I50
sS'offer'
p592
I50
sS'funds'
p593
I150
sS'restrictions'
p594
I50
sS'warn'
p595
I50
sS'dramatic'
p596
I50
sS'shortfall'
p597
I50
sS'deceleration'
p598
I50
sS'injected'
p599
I50
sS'hold'
p600
I100
sS'effort'
p601
I50
sS'interbank'
p602
I100
sS'begins'
p603
I50
sS'states'
p604
I50
sS'keeping'
p605
I100
sS'stg'
p606
I950
sS'abandoned'
p607
I200
sS'metall'
p608
I50
sS'wholesale'
p609
I50
sS'quoting'
p610
I50
sS'official'
p611
I50
sS'governor'
p612
I50
sS'future'
p613
I100
sS'briefing'
p614
I50
sS'aid'
p615
I50
sS'abandon'
p616
I200
sS'steer'
p617
I150
sS'launches'
p618
I100
sS'control'
p619
I100
sS'ranges'
p620
I100
sS'months'
p621
I100
sS'defined'
p622
I400
sS'december'
p623
I100
sS'year'
p624
I100
sS'india'
p625
I50
sS'sales'
p626
I100
sS'slifer'
p627
I50
sS'involve'
p628
I50
sS'operated'
p629
I300
sS'reserves'
p630
I150
sS'curb'
p631
I200
sS'daily'
p632
I200
sS'view'
p633
I50
sS'allocating'
p634
I50
sS'regulate'
p635
I50
sS'movements'
p636
I50
sS'outlook'
p637
I50
sS'speculative'
p638
I250
sS'drains'
p639
I50
sS'chief'
p640
I100
sS'oriented'
p641
I50
sS'tight'
p642
I150
sS'bloodbath'
p643
I50
sS'points'
p644
I50
sS'largest'
p645
I50
sS'korean'
p646
I100
sS'steered'
p647
I50
sS'target'
p648
I100
sS'economy'
p649
I50
sS'week'
p650
I50
sS'slow'
p651
I100
sS'above-target'
p652
I150
sS'monday'
p653
I50
sS'singapore'
p654
I100
sS'narrowly-defined'
p655
I250
sS'boosted'
p656
I50
sS'price'
p657
I50
sS'earlier'
p658
I100
sS'm-1'
p659
I800
sS'effect'
p660
I50
sS'm-3'
p661
I200
sS'm-2'
p662
I100
sS'leave'
p663
I50
sS'levels'
p664
I50
sS'germany'
p665
I50
sS'easing'
p666
I50
sS'advances'
p667
I50
sS'adds'
p668
I50
sS'italian'
p669
I50
sS'needed'
p670
I50
sS'structure'
p671
I50
sS'billion'
p672
I50
sS'volume'
p673
I50
sS'stress'
p674
I50
sS'assets'
p675
I300
sS'liquid'
p676
I50
sS'move'
p677
I50
sS'cover'
p678
I100
sS'overnight'
p679
I50
sS'remit'
p680
I50
sS'edgy'
p681
I50
sS'three-month'
p682
I100
sS'accounted'
p683
I50
sS'deposit'
p684
I50
sS'restricting'
p685
I50
sS'sets'
p686
I50
sS'swiss'
p687
I50
sS'position'
p688
I100
sS'operate'
p689
I200
sS'temporarily'
p690
I50
sS'liquidity'
p691
I150
sS'fact'
p692
I50
sS'reserve'
p693
I100
ssg31
g32
sg33
(lp694
sbsS'sunseed'
p695
(i__main__
WordWeight
p696
(dp697
g4
(dp698
S'sunseed'
p699
I100
sS'rapeseed'
p700
I50
ssg31
g32
sg33
(lp701
sbsS'trade'
p702
(i__main__
WordWeight
p703
(dp704
g4
(dp705
S'restraining'
p706
I50
sS'global'
p707
I250
sS'dollar'
p708
I300
sS'focus'
p709
I50
sS'month'
p710
I50
sS'semi-conductor'
p711
I50
sS'talks'
p712
I300
sS'duty-free'
p713
I50
sS'settlement'
p714
I50
sS'issues'
p715
I50
sS'row'
p716
I100
sS'increase'
p717
I150
sS'breached'
p718
I50
sS'violate'
p719
I100
sS'turkish'
p720
I100
sS'paris'
p721
I50
sS'concerned'
p722
I100
sS'exports,'
p723
I50
sS'stave'
p724
I100
sS'thursday'
p725
I150
sS'passage'
p726
I50
sS'german'
p727
I250
sS'officials'
p728
I50
sS'include'
p729
I150
sS'defuse'
p730
I50
sS'hawing'
p731
I50
sS'bottomed'
p732
I50
sS'pact'
p733
I50
sS'u.s.-japan'
p734
I250
sS'worse'
p735
I50
sS'saskatchewan'
p736
I50
sS'two-way'
p737
I100
sS'distort'
p738
I50
sS'worst'
p739
I50
sS'reforms'
p740
I50
sS'affect'
p741
I100
sS'continued'
p742
I200
sS'vast'
p743
I50
sS'entire'
p744
I50
sS'level'
p745
I100
sS'philippines'
p746
I100
sS'tokyo'
p747
I50
sS'companies'
p748
I50
sS'solution'
p749
I50
sS'large'
p750
I800
sS'settle'
p751
I250
sS'announced'
p752
I100
sS'noted'
p753
I100
sS'possibility'
p754
I50
sS'hardening'
p755
I100
sS'leaders'
p756
I50
sS'educators'
p757
I100
sS'trend'
p758
I50
sS'mln'
p759
I100
sS'warns'
p760
I100
sS'japanese'
p761
I1350
sS'fold'
p762
I50
sS'rate'
p763
I50
sS'd-il'
p764
I50
sS'toughen'
p765
I250
sS'aggressive'
p766
I50
sS'index'
p767
I50
sS'poison'
p768
I50
sS'agrees'
p769
I50
sS'current'
p770
I350
sS'harmonious'
p771
I50
sS'weighing'
p772
I50
sS'capital'
p773
I50
sS'international'
p774
I2700
sS'firms'
p775
I50
sS'microchip'
p776
I350
sS'boost'
p777
I100
sS'u.s.'
p778
I1000
sS'told'
p779
I150
sS'unsure'
p780
I100
sS'avert'
p781
I200
sS'continuing'
p782
I150
sS'french'
p783
I100
sS'monetary'
p784
I200
sS'believed'
p785
I50
sS'protection'
p786
I50
sS'china'
p787
I450
sS'free'
p788
I1700
sS'active'
p789
I50
sS'consideration'
p790
I150
sS'november'
p791
I50
sS'dwindling'
p792
I50
sS'change'
p793
I150
sS'widening'
p794
I100
sS'speeches'
p795
I50
sS'engage'
p796
I50
sS'exemption'
p797
I50
sS'credits'
p798
I50
sS'healthy'
p799
I50
sS'items'
p800
I50
sS'study'
p801
I50
sS'reports'
p802
I50
sS'resulting'
p803
I50
sS'analysts'
p804
I50
sS'action'
p805
I100
sS'implement'
p806
I50
sS'narrow'
p807
I350
sS'studies'
p808
I50
sS'all-out'
p809
I100
sS'criticism'
p810
I50
sS'u.k.'
p811
I150
sS'foresee'
p812
I100
sS'deputy'
p813
I250
sS'semiconductors'
p814
I50
sS'ethiopian'
p815
I50
sS"pakistan's"
p816
I50
sS'thatcher'
p817
I50
sS'affected'
p818
I50
sS'visible'
p819
I550
sS'surpluses'
p820
I100
sS'send'
p821
I50
sS'customs-cleared'
p822
I100
sS'total'
p823
I400
sS'establish'
p824
I100
sS'crisis'
p825
I100
sS'market'
p826
I150
sS'unilateral'
p827
I100
sS'feb'
p828
I150
sS'takes'
p829
I50
sS'positive'
p830
I100
sS'visit'
p831
I100
sS'france'
p832
I100
sS'examination'
p833
I50
sS'non-tariff'
p834
I50
sS'peru'
p835
I100
sS'recommend'
p836
I50
sS'doubling'
p837
I50
sS'bill'
p838
I50
sS'markets'
p839
I100
sS'subsidies'
p840
I100
sS'today'
p841
I50
sS'belgian'
p842
I50
sS'flat'
p843
I50
sS"brazil's"
p844
I50
sS'overrall'
p845
I50
sS'approving'
p846
I50
sS'deregulate'
p847
I50
sS'broke'
p848
I50
sS'ward'
p849
I150
sS'hold'
p850
I50
sS'tariff'
p851
I50
sS'canadian'
p852
I400
sS'entrepot'
p853
I50
sS'account'
p854
I50
sS'announcing'
p855
I50
sS'rights'
p856
I50
sS'gradin'
p857
I50
sS'quoting'
p858
I50
sS'out-of-date'
p859
I100
sS'recession'
p860
I50
sS'fitzwater'
p861
I50
sS'outstanding'
p862
I100
sS'growing'
p863
I550
sS'root'
p864
I50
sS'prompt'
p865
I100
sS'wang'
p866
I50
sS'uruguay'
p867
I150
sS'expanding'
p868
I50
sS'chip'
p869
I100
sS'india'
p870
I400
sS'states'
p871
I200
sS'currency'
p872
I300
sS'provoke'
p873
I100
sS'association'
p874
I50
sS'swedish'
p875
I100
sS'huge'
p876
I850
sS'goal'
p877
I100
sS'gatt'
p878
I450
sS'discussion'
p879
I50
sS'damage'
p880
I50
sS'write'
p881
I50
sS'vital'
p882
I50
sS'reject'
p883
I50
sS'answer'
p884
I50
sS'oppose'
p885
I50
sS'canadian-u'
p886
I50
sS'economy'
p887
I200
sS'product'
p888
I50
sS'rise'
p889
I50
sS'plans'
p890
I50
sS'farm'
p891
I1100
sS'improving'
p892
I100
sS'meaningful'
p893
I50
sS'response'
p894
I50
sS'provisionally'
p895
I50
sS'stress'
p896
I50
sS'preferential'
p897
I50
sS'toughening'
p898
I100
sS'surging'
p899
I50
sS'acknowledged'
p900
I50
sS'spectre'
p901
I100
sS'chief'
p902
I100
sS'maintain'
p903
I150
sS'increasing'
p904
I100
sS'deterioration'
p905
I300
sS'african'
p906
I200
sS'retaliate'
p907
I50
sS'billion-dlr'
p908
I50
sS'office'
p909
I150
sS'enter'
p910
I50
sS'september'
p911
I150
sS'expects'
p912
I150
sS'trade'
p913
I228900
sS'including'
p914
I100
sS'committee'
p915
I250
sS'cuts'
p916
I50
sS'argued'
p917
I100
sS'japan'
p918
I1800
sS'bombing'
p919
I50
sS'custom-cleared'
p920
I50
sS'committess'
p921
I50
sS'yawning'
p922
I50
sS'economists'
p923
I50
sS'spur'
p924
I50
sS'fix'
p925
I50
sS'democratic-sponsored'
p926
I50
sS'pct'
p927
I300
sS'comprehend'
p928
I50
sS'permanent'
p929
I50
sS'categories'
p930
I50
sS'bypass'
p931
I50
sS'policy'
p932
I50
sS'release'
p933
I50
sS'schina'
p934
I50
sS'imbalance'
p935
I300
sS'norway'
p936
I50
sS'pending'
p937
I150
sS'return'
p938
I100
sS'finance'
p939
I100
sS'food'
p940
I100
sS'nation'
p941
I200
sS'mention'
p942
I50
sS'cutting'
p943
I50
sS'hands'
p944
I200
sS'front'
p945
I50
sS'baldrige'
p946
I150
sS'discuss'
p947
I150
sS'bank'
p948
I100
sS'february'
p949
I1100
sS'january'
p950
I400
sS'drop'
p951
I300
sS'peking'
p952
I50
sS'conflict'
p953
I100
sS'reasonable'
p954
I200
sS'rising'
p955
I150
sS'quarter'
p956
I100
sS'week'
p957
I100
sS'series'
p958
I150
sS'met'
p959
I50
sS'reduce'
p960
I1500
sS'democrat'
p961
I150
sS'nigerian'
p962
I100
sS'begun'
p963
I50
sS'year'
p964
I500
sS'annually'
p965
I50
sS'agriculture'
p966
I50
sS'special'
p967
I200
sS'seoul'
p968
I50
sS'canada'
p969
I250
sS'sentiment'
p970
I50
sS'factors'
p971
I50
sS'open'
p972
I150
sS'publish'
p973
I50
sS'semiconductor'
p974
I1200
sS'nominal'
p975
I200
sS'dutch'
p976
I50
sS'issue'
p977
I50
sS'correct'
p978
I200
sS'disagreements'
p979
I50
sS'franc'
p980
I50
sS'turning'
p981
I50
sS'cooperatively'
p982
I100
sS'curbs'
p983
I50
sS'favored'
p984
I50
sS'enforcing'
p985
I50
sS'friday'
p986
I50
sS'threatened'
p987
I250
sS'governing'
p988
I100
sS'standard'
p989
I50
sS'worries'
p990
I50
sS'reason'
p991
I50
sS'cornerstone'
p992
I50
sS'ministry'
p993
I100
sS'impose'
p994
I250
sS'british'
p995
I100
sS'heading'
p996
I150
sS'counterpart'
p997
I100
sS'american'
p998
I150
sS'place'
p999
I50
sS'massive'
p1000
I300
sS'threat'
p1001
I150
sS'target'
p1002
I50
sS'barriers'
p1003
I200
sS'support'
p1004
I300
sS'major'
p1005
I1100
sS'industrial'
p1006
I50
sS'protectionist'
p1007
I800
sS'hearing'
p1008
I50
sS'channels'
p1009
I50
sS'improvements'
p1010
I200
sS'vote'
p1011
I50
sS'mandatory'
p1012
I50
sS'message'
p1013
I50
sS'quality'
p1014
I50
sS'protectionism'
p1015
I50
sS'smaller'
p1016
I100
sS'two-week'
p1017
I100
sS'relations'
p1018
I150
sS'needed'
p1019
I50
sS'attack'
p1020
I150
sS'draft'
p1021
I50
sS'statement'
p1022
I100
sS'hindered'
p1023
I50
sS'wrapped'
p1024
I50
sS'final'
p1025
I50
sS'damaging'
p1026
I200
sS'enforcement'
p1027
I300
sS'moscow'
p1028
I50
sS'brazilian'
p1029
I100
sS'agree'
p1030
I50
sS'direct'
p1031
I100
sS'released'
p1032
I50
sS'part'
p1033
I50
sS'western'
p1034
I50
sS'japanese-u'
p1035
I50
sS'thai'
p1036
I100
sS'slack'
p1037
I50
sS'showed'
p1038
I50
sS'countertrading'
p1039
I150
sS'transferred'
p1040
I50
sS'nations'
p1041
I100
sS'project'
p1042
I100
sS'matter'
p1043
I50
sS'sweden'
p1044
I50
sS'dismantling'
p1045
I50
sS'ecuador'
p1046
I50
sS'negatively'
p1047
I50
sS'outcome'
p1048
I50
sS'subcommittee'
p1049
I50
sS'unveils'
p1050
I50
sS'sees'
p1051
I50
sS'wideranging'
p1052
I50
sS'danish'
p1053
I50
sS'ran'
p1054
I50
sS'correction'
p1055
I100
sS'measure'
p1056
I50
sS'fall,'
p1057
I50
sS'substantial'
p1058
I50
sS'enourmous'
p1059
I50
sS'close'
p1060
I100
sS'romania'
p1061
I50
sS'border'
p1062
I50
sS'sell'
p1063
I50
sS'wilson'
p1064
I50
sS'u.s'
p1065
I50
sS'accountable'
p1066
I50
sS'cross-border'
p1067
I100
sS'argentina-brazil'
p1068
I50
sS'concerns'
p1069
I50
sS'korean'
p1070
I500
sS'worsening'
p1071
I50
sS'worldwide'
p1072
I150
sS'banking'
p1073
I50
sS'added'
p1074
I200
sS'combat'
p1075
I50
sS'normal'
p1076
I100
sS'approves'
p1077
I200
sS'measures'
p1078
I50
sS'crandall'
p1079
I50
sS'looming'
p1080
I100
sS'germany'
p1081
I50
sS'preliminary'
p1082
I50
sS'complaints'
p1083
I50
sS'house-passed'
p1084
I50
sS'comparison'
p1085
I50
sS'measured'
p1086
I100
sS'approved'
p1087
I100
sS'zealand'
p1088
I100
sS'africa'
p1089
I100
sS'don'
p1090
I150
sS'consequences'
p1091
I100
sS'clear'
p1092
I50
sS'visiting'
p1093
I50
sS'focussing'
p1094
I50
sS'yeutter'
p1095
I150
sS'odds'
p1096
I100
sS'sjapan'
p1097
I600
sS'senior'
p1098
I100
sS'charged'
p1099
I50
sS'laws'
p1100
I100
sS'shot'
p1101
I50
sS'surplus'
p1102
I150
sS'barter'
p1103
I100
sS'show'
p1104
I100
sS'reductions'
p1105
I50
sS'swelling'
p1106
I50
sS'meetings'
p1107
I50
sS'jurisdiction'
p1108
I50
sS'friction'
p1109
I100
sS'bring'
p1110
I50
sS'planning'
p1111
I100
sS'solutions'
p1112
I50
sS'timidity'
p1113
I50
sS'multilateral'
p1114
I250
sS'fear'
p1115
I50
sS'high-level'
p1116
I100
sS'july'
p1117
I100
sS'intensify'
p1118
I50
sS'staff'
p1119
I50
sS'impact'
p1120
I100
sS'partners'
p1121
I150
sS'knowledge'
p1122
I50
sS'n.z.'
p1123
I50
sS'factor'
p1124
I50
sS'rice'
p1125
I50
sS'congressional'
p1126
I50
sS'dispute'
p1127
I100
sS'exports'
p1128
I150
sS'prowess'
p1129
I50
sS'means'
p1130
I250
sS'assistant'
p1131
I50
sS'chilean'
p1132
I50
sS'joint'
p1133
I50
sS'remedy'
p1134
I50
sS'reporters'
p1135
I50
sS'years'
p1136
I100
sS'chips'
p1137
I50
sS'merchandise'
p1138
I650
sS'areas'
p1139
I50
sS'resolve'
p1140
I200
sS'countries'
p1141
I200
sS'remove'
p1142
I50
sS'calling'
p1143
I50
sS'liberalising'
p1144
I100
sS'underlying'
p1145
I50
sS'three-year'
p1146
I50
sS'predicted'
p1147
I250
sS'switzerland'
p1148
I50
sS'discussing'
p1149
I150
sS'gramlich'
p1150
I50
sS'secretary'
p1151
I150
sS'requirement'
p1152
I50
sS'qtr'
p1153
I50
sS'fair'
p1154
I400
sS'taiwanese'
p1155
I100
sS'january-march'
p1156
I100
sS'decided'
p1157
I50
sS'yugoslavia'
p1158
I50
sS'result'
p1159
I150
sS'agricultural'
p1160
I1100
sS'discussions'
p1161
I100
sS'top-level'
p1162
I50
sS'limiting'
p1163
I50
sS'concern'
p1164
I50
sS'brazil'
p1165
I400
sS'threats'
p1166
I50
sS'reform'
p1167
I50
sS'federal'
p1168
I50
sS'subsequent'
p1169
I50
sS'commitments'
p1170
I100
sS'dlr'
p1171
I1400
sS'state'
p1172
I50
sS'affecting'
p1173
I50
sS'progress'
p1174
I50
sS'yesterday'
p1175
I50
sS'illiberal'
p1176
I50
sS'approach'
p1177
I150
sS"bangladesh's"
p1178
I50
sS'korea'
p1179
I550
sS'terms'
p1180
I750
sS'importance'
p1181
I100
sS'brewing'
p1182
I50
sS'regional'
p1183
I50
sS'volcker'
p1184
I200
sS'answers'
p1185
I100
sS'key'
p1186
I50
sS'invisible'
p1187
I200
sS'approval'
p1188
I50
sS'understanding'
p1189
I50
sS'hardline'
p1190
I50
sS'improve'
p1191
I400
sS'restrictions'
p1192
I100
sS'commenting'
p1193
I100
sS'improved'
p1194
I250
sS'reverse'
p1195
I50
sS'reported'
p1196
I50
sS'country'
p1197
I200
sS'region'
p1198
I50
sS'annual'
p1199
I100
sS'foreign'
p1200
I2400
sS'sensitive'
p1201
I50
sS'surplus-cutting'
p1202
I100
sS'planned'
p1203
I50
sS'non-oil'
p1204
I350
sS'approve'
p1205
I50
sS'asked'
p1206
I50
sS'referring'
p1207
I100
sS'pakistan'
p1208
I50
sS'adjusted'
p1209
I100
sS'tough'
p1210
I450
sS'headed'
p1211
I50
sS'removal'
p1212
I100
sS'subsidised'
p1213
I50
sS'centre'
p1214
I50
sS'community'
p1215
I250
sS'agreed'
p1216
I50
sS'd-n'
p1217
I50
sS'contentious'
p1218
I100
sS'trust'
p1219
I50
sS'considers'
p1220
I50
sS'turkey'
p1221
I150
sS'decline'
p1222
I50
sS'strong'
p1223
I50
sS'basis'
p1224
I50
sS'tremendous'
p1225
I50
sS'mounting'
p1226
I150
sS'rebounded'
p1227
I100
sS'strategy'
p1228
I50
sS'reduction'
p1229
I150
sS'reuters'
p1230
I50
sS'slowly'
p1231
I50
sS'agreements'
p1232
I50
sS'ssoviet'
p1233
I50
sS'expected'
p1234
I250
sS'flexible'
p1235
I50
sS'meeting'
p1236
I500
sS'drafting'
p1237
I50
sS'lived'
p1238
I50
sS'shortages'
p1239
I50
sS'philippine'
p1240
I50
sS'great'
p1241
I100
sS'lift'
p1242
I400
sS'tense'
p1243
I100
sS'external'
p1244
I750
sS'chile'
p1245
I50
sS'demand'
p1246
I50
sS'adverserial'
p1247
I50
sS'yugoslav'
p1248
I150
sS'present'
p1249
I100
sS'case'
p1250
I100
sS'commerce'
p1251
I200
sS'gnp'
p1252
I50
sS'vetoing'
p1253
I50
sS'smouldering'
p1254
I50
sS'expanded'
p1255
I150
sS'lessen'
p1256
I150
sS'budget'
p1257
I50
sS'involved'
p1258
I50
sS'aid'
p1259
I200
sS'pressure'
p1260
I50
sS'balance'
p1261
I450
sS'spotlight'
p1262
I50
sS'existence'
p1263
I50
sS'adminstration'
p1264
I50
sS'two-month'
p1265
I50
sS'pressing'
p1266
I50
sS'trimming'
p1267
I50
sS'halt'
p1268
I50
sS'whitehead'
p1269
I50
sS'april'
p1270
I300
sS'administration'
p1271
I150
sS'textile'
p1272
I50
sS'get-tough'
p1273
I50
sS'largest'
p1274
I50
sS'products'
p1275
I50
sS'day'
p1276
I50
sS'european'
p1277
I150
sS'status'
p1278
I50
sS'tighten'
p1279
I50
sS'oil'
p1280
I50
sS'comprehensive'
p1281
I100
sS'negotiate'
p1282
I100
sS'moment'
p1283
I100
sS'opportunity'
p1284
I50
sS'blamed'
p1285
I50
sS'expand'
p1286
I50
sS'shortly'
p1287
I100
sS'largely'
p1288
I50
sS'options'
p1289
I50
sS'thought'
p1290
I50
sS'severe'
p1291
I100
sS'practices'
p1292
I100
sS'solve'
p1293
I400
sS'machinery'
p1294
I150
sS'sets'
p1295
I50
sS'position'
p1296
I100
sS'soviet'
p1297
I300
sS'latest'
p1298
I200
sS'excessive'
p1299
I50
sS'adjustments'
p1300
I50
sS'unfair'
p1301
I2050
sS'sources'
p1302
I100
sS'interim'
p1303
I150
sS'lavorel'
p1304
I50
sS'tone'
p1305
I100
sS'taiwan'
p1306
I950
sS'adding'
p1307
I50
sS'cut'
p1308
I1650
sS'devaluation'
p1309
I50
sS'ease'
p1310
I100
sS'recommending'
p1311
I100
sS'improvement'
p1312
I250
sS'source'
p1313
I50
sS'add'
p1314
I50
sS'developments'
p1315
I50
sS'extensive'
p1316
I100
sS'east'
p1317
I50
sS'remaining'
p1318
I50
sS'gave'
p1319
I100
sS'real'
p1320
I100
sS'march'
p1321
I200
sS'increased'
p1322
I150
sS'government'
p1323
I50
sS'rules'
p1324
I150
sS'reagan'
p1325
I150
sS'delhi'
p1326
I50
sS'period'
p1327
I50
sS'early'
p1328
I100
sS'increases'
p1329
I100
sS'burden'
p1330
I50
sS'culprits'
p1331
I50
sS'world'
p1332
I2600
sS'sjapanese'
p1333
I250
sS'formal'
p1334
I50
sS'imposed'
p1335
I50
sS'reduces'
p1336
I50
sS'conducts'
p1337
I50
sS'specific'
p1338
I300
sS'continue'
p1339
I50
sS'full-scale'
p1340
I150
sS'payments'
p1341
I50
sS'lose'
p1342
I150
sS'sisraeli'
p1343
I50
sS'output'
p1344
I100
sS'signal'
p1345
I50
sS'8-mth'
p1346
I50
sS'amendment'
p1347
I50
sS'methods'
p1348
I50
sS'deal'
p1349
I150
sS'senate'
p1350
I50
sS'authority'
p1351
I50
sS'supplementary'
p1352
I100
sS'malaysia'
p1353
I50
sS'trends'
p1354
I50
sS'growth'
p1355
I200
sS'markka'
p1356
I50
sS'indirect'
p1357
I100
sS'nicaragua'
p1358
I50
sS'short-term'
p1359
I100
sS'consensus'
p1360
I50
sS'lead'
p1361
I50
sS'freer'
p1362
I200
sS'avoid'
p1363
I150
sS'spokesman'
p1364
I50
sS'recorded'
p1365
I100
sS'quickly'
p1366
I50
sS'imposes'
p1367
I50
sS'deficit'
p1368
I400
sS'provoking'
p1369
I50
sS'run'
p1370
I50
sS'reaching'
p1371
I100
sS'june'
p1372
I50
sS'strained'
p1373
I50
sS'agreement'
p1374
I250
sS'expansion'
p1375
I50
sS'restrictive'
p1376
I100
sS'host'
p1377
I100
sS'thailand'
p1378
I100
sS'post'
p1379
I50
sS'prepared'
p1380
I50
sS'manufactures'
p1381
I50
sS'panel'
p1382
I100
sS'dlrs'
p1383
I750
sS'goods'
p1384
I150
sS'actual'
p1385
I50
sS'package'
p1386
I50
sS'island'
p1387
I50
sS'months'
p1388
I100
sS'conciliatory'
p1389
I50
sS'monthly'
p1390
I300
sS'fell'
p1391
I50
sS'ensure'
p1392
I50
sS'act'
p1393
I50
sS'tariffs'
p1394
I3350
sS'sept'
p1395
I50
sS'provisional'
p1396
I50
sS'inclusion'
p1397
I100
sS'instruments'
p1398
I50
sS'washington'
p1399
I250
sS'appoints'
p1400
I50
sS'services'
p1401
I50
sS'weather'
p1402
I50
sS'involvement'
p1403
I50
sS'heated'
p1404
I50
sS'balanced'
p1405
I150
sS'accumulated'
p1406
I100
sS'reducing'
p1407
I200
sS'intervention'
p1408
I50
sS"norway's"
p1409
I50
sS'existed'
p1410
I100
sS'statistics'
p1411
I100
sS'bangladesh'
p1412
I150
sS'removing'
p1413
I50
sS'incipient'
p1414
I50
sS'initial'
p1415
I50
sS'legislation'
p1416
I150
sS'long'
p1417
I100
sS'start'
p1418
I50
sS'restricts'
p1419
I50
sS'fought'
p1420
I100
sS'house'
p1421
I600
sS'biggest'
p1422
I50
sS'opposed'
p1423
I50
sS'head'
p1424
I50
sS'form'
p1425
I150
sS'offer'
p1426
I50
sS'account,'
p1427
I100
sS'volume'
p1428
I50
sS'competition'
p1429
I50
sS'promote'
p1430
I50
sS'australian'
p1431
I150
sS'raising'
p1432
I50
sS'posted'
p1433
I150
sS'october'
p1434
I50
sS'lyng'
p1435
I150
sS'official'
p1436
I50
sS'attached'
p1437
I50
sS'finesse'
p1438
I50
sS'signed'
p1439
I50
sS'imbalances'
p1440
I50
sS'record'
p1441
I350
sS'limit'
p1442
I100
sS'ruling'
p1443
I50
sS'verging'
p1444
I100
sS'problem'
p1445
I150
sS'retaliatory'
p1446
I250
sS'called'
p1447
I50
sS'trim'
p1448
I50
sS'promises'
p1449
I100
sS'liberal'
p1450
I50
sS'contribute'
p1451
I50
sS'one-third'
p1452
I50
sS'alarmed'
p1453
I50
sS'evidence'
p1454
I150
sS'wildly'
p1455
I50
sS'list'
p1456
I50
sS'cure'
p1457
I50
sS'doo-hwan'
p1458
I50
sS'encompass'
p1459
I50
sS'moves'
p1460
I50
sS'ongpin'
p1461
I50
sS'cotton'
p1462
I50
sS'assessing'
p1463
I50
sS'lopsided'
p1464
I50
sS'nics'
p1465
I50
sS'fears'
p1466
I50
sS'liberalized'
p1467
I100
sS'field'
p1468
I50
sS'misleading'
p1469
I50
sS'department'
p1470
I150
sS'belgolux'
p1471
I100
sS'outlines'
p1472
I50
sS'scapegoat'
p1473
I50
sS'congress'
p1474
I150
sS'proposals'
p1475
I50
sS'symbol'
p1476
I50
sS'dismantle'
p1477
I100
sS'includes'
p1478
I100
sS'chance'
p1479
I50
sS'important'
p1480
I50
sS'arbiter'
p1481
I50
sS'gradoville'
p1482
I50
sS'fendt'
p1483
I50
sS'billion'
p1484
I150
sS'bilateral'
p1485
I1350
sS'calls'
p1486
I200
sS'omnibus'
p1487
I100
sS'u.s./japan'
p1488
I50
sS'baker'
p1489
I50
sS'resolving'
p1490
I50
sS'ottawa'
p1491
I100
sS'impair'
p1492
I50
sS'time'
p1493
I100
sS'understand'
p1494
I50
sS'overseas'
p1495
I100
sS'resolution'
p1496
I50
sS'minister'
p1497
I50
ssg31
g32
sg33
(lp1498
sbsS'zinc'
p1499
(i__main__
WordWeight
p1500
(dp1501
g4
(dp1502
S'copper'
p1503
I50
sS'major'
p1504
I50
sS'gold'
p1505
I50
sS'grade'
p1506
I100
sS'africa'
p1507
I50
sS'primary'
p1508
I200
sS'majeure'
p1509
I100
sS'hindustan'
p1510
I50
sS'grades'
p1511
I100
sS'individual'
p1512
I50
sS'design'
p1513
I50
sS'zinc'
p1514
I10600
sS'world'
p1515
I150
sS'concentration'
p1516
I50
sS'slab'
p1517
I200
sS'refined'
p1518
I50
sS'market'
p1519
I50
sS'high-grade'
p1520
I100
sS'develop'
p1521
I50
sS'lead'
p1522
I350
sS'aluminium'
p1523
I50
sS'europe'
p1524
I50
sS'pct'
p1525
I350
sS'amax'
p1526
I100
sS'production'
p1527
I150
sS'ton'
p1528
I50
sS'largest'
p1529
I50
sS'biggest'
p1530
I50
sS'copper-plated'
p1531
I50
sS'european'
p1532
I300
sS'worldwide'
p1533
I50
sS'canada'
p1534
I100
sS'march'
p1535
I50
sS'by-products'
p1536
I50
sS'shortfall'
p1537
I100
sS'u.s.'
p1538
I50
sS'producers'
p1539
I50
sS'reported'
p1540
I50
sS'brand'
p1541
I50
sS'plan'
p1542
I50
sS'siromelt'
p1543
I50
sS'included'
p1544
I50
sS'asturiana'
p1545
I50
sS'thai'
p1546
I100
sS'producing'
p1547
I50
sS'silver'
p1548
I50
sS'lbs'
p1549
I50
sS'pounds'
p1550
I50
sS'changed'
p1551
I50
sS'tons'
p1552
I450
sS'coal'
p1553
I50
sS'allied'
p1554
I50
sS'african'
p1555
I50
sS'tonnes'
p1556
I400
sS'bulletin'
p1557
I50
ssg31
g32
sg33
(lp1558
sbsS'sugar'
p1559
(i__main__
WordWeight
p1560
(dp1561
g4
(dp1562
S'origin'
p1563
I50
sS'boosted'
p1564
I50
sS'responsible'
p1565
I50
sS'stores'
p1566
I50
sS'semolina'
p1567
I50
sS'producer'
p1568
I50
sS'limited'
p1569
I50
sS'german'
p1570
I400
sS'yulo'
p1571
I50
sS'differences'
p1572
I50
sS'move'
p1573
I100
sS'domestic'
p1574
I400
sS'trade'
p1575
I50
sS'produced'
p1576
I100
sS'sources'
p1577
I50
sS'protest'
p1578
I50
sS'london'
p1579
I200
sS'sown'
p1580
I50
sS'human'
p1581
I50
sS'cuts'
p1582
I50
sS'taiwan'
p1583
I150
sS'demand'
p1584
I50
sS'eliminated'
p1585
I50
sS'ground'
p1586
I50
sS'devoted'
p1587
I50
sS'spokesman'
p1588
I50
sS'cut'
p1589
I100
sS'turkish'
p1590
I100
sS'ease'
p1591
I50
sS'guaranteed'
p1592
I50
sS'pct'
p1593
I200
sS'sugar'
p1594
I76500
sS'self-destruct'
p1595
I50
sS'production'
p1596
I150
sS'dairy'
p1597
I50
sS'rich'
p1598
I50
sS'representatives'
p1599
I150
sS'bread'
p1600
I50
sS'include'
p1601
I50
sS'administrative'
p1602
I50
sS'virtually'
p1603
I50
sS'pay'
p1604
I50
sS'coffee'
p1605
I200
sS'slash'
p1606
I100
sS'cuba'
p1607
I150
sS'surrounds'
p1608
I50
sS'rise'
p1609
I50
sS'acreage'
p1610
I50
sS'burden'
p1611
I50
sS'import'
p1612
I300
sS'world'
p1613
I600
sS'month'
p1614
I50
sS'discuss'
p1615
I50
sS'association'
p1616
I50
sS'unrefined'
p1617
I50
sS'delivery'
p1618
I50
sS'term'
p1619
I50
sS'excluding'
p1620
I50
sS'accompanying'
p1621
I50
sS'january'
p1622
I50
sS'reduces'
p1623
I50
sS'countries'
p1624
I50
sS'eastern'
p1625
I50
sS'solution'
p1626
I50
sS'fodder'
p1627
I50
sS'deals'
p1628
I50
sS'hectares'
p1629
I100
sS'moisture-stressed'
p1630
I50
sS'night'
p1631
I50
sS'small'
p1632
I50
sS'output'
p1633
I50
sS'non-quota'
p1634
I50
sS'higher'
p1635
I50
sS'noted'
p1636
I50
sS'week'
p1637
I50
sS'advocate'
p1638
I50
sS'set'
p1639
I50
sS'sucralose'
p1640
I100
sS'dealing'
p1641
I50
sS'national'
p1642
I50
sS'reduce'
p1643
I50
sS'draw'
p1644
I50
sS'crop'
p1645
I100
sS'zones'
p1646
I50
sS'trends'
p1647
I100
sS'member'
p1648
I50
sS'export'
p1649
I50
sS'sukkerfabrikker'
p1650
I50
sS'surrendered'
p1651
I50
sS'year'
p1652
I250
sS'close'
p1653
I50
sS'dlrs'
p1654
I50
sS'agriculture'
p1655
I100
sS'alternative'
p1656
I50
sS'subject'
p1657
I100
sS'amalgamated'
p1658
I50
sS'caribbean'
p1659
I50
sS'alcohol'
p1660
I150
sS'bullish'
p1661
I50
sS'decision'
p1662
I50
sS'up-and-running'
p1663
I100
sS'profitability'
p1664
I50
sS'forecast'
p1665
I150
sS'increase'
p1666
I250
sS'pioneer'
p1667
I300
sS'state'
p1668
I50
sS'indian'
p1669
I100
sS'london-based'
p1670
I50
sS'buying-in'
p1671
I50
sS'shipment'
p1672
I150
sS'dutch'
p1673
I250
sS'crude'
p1674
I150
sS'international'
p1675
I800
sS'boost'
p1676
I50
sS'sold'
p1677
I50
sS'bought'
p1678
I50
sS'europe'
p1679
I50
sS'imported'
p1680
I150
sS'wheat'
p1681
I50
sS'business'
p1682
I50
sS'adding'
p1683
I50
sS'u.s.'
p1684
I300
sS'continuing'
p1685
I100
sS'french'
p1686
I400
sS'yesterday'
p1687
I150
sS'restrictive'
p1688
I50
sS'step'
p1689
I100
sS'china'
p1690
I350
sS'ethanol'
p1691
I50
sS'boosting'
p1692
I50
sS'put'
p1693
I150
sS'approval'
p1694
I50
sS'estimate'
p1695
I50
sS'iraq'
p1696
I50
sS'contraction'
p1697
I50
sS'league'
p1698
I50
sS'speeches'
p1699
I50
sS'politically-influential'
p1700
I50
sS'withdrawing'
p1701
I100
sS'region'
p1702
I100
sS'current'
p1703
I100
sS'british'
p1704
I450
sS'reduced'
p1705
I50
sS'investment'
p1706
I50
sS'monthly'
p1707
I50
sS'american'
p1708
I150
sS'grain'
p1709
I50
sS'target'
p1710
I50
sS'moving'
p1711
I50
sS'share'
p1712
I100
sS'sugarbeets'
p1713
I50
sS'fallen'
p1714
I50
sS'asked'
p1715
I100
sS'revise'
p1716
I50
sS'comment'
p1717
I50
sS'pakistan'
p1718
I50
sS'major'
p1719
I50
sS'dilemma'
p1720
I50
sS'raise'
p1721
I50
sS'state-run'
p1722
I50
sS'beghin-say'
p1723
I50
sS'authorised'
p1724
I150
sS'philippine'
p1725
I100
sS'haitian'
p1726
I50
sS'reagan'
p1727
I50
sS'encouraging'
p1728
I50
sS'community'
p1729
I150
sS'cocoa'
p1730
I50
sS'rice'
p1731
I150
sS'tons'
p1732
I150
sS'improvements'
p1733
I50
sS'raises'
p1734
I50
sS'inroads'
p1735
I50
sS'december'
p1736
I50
sS'cereals'
p1737
I100
sS'refined'
p1738
I400
sS'total'
p1739
I100
sS'fiji'
p1740
I300
sS'market'
p1741
I100
sS'intervention'
p1742
I100
sS'1986'
p1743
I50
sS'1987'
p1744
I50
sS'feb'
p1745
I50
sS'bangladesh'
p1746
I100
sS'rejects'
p1747
I50
sS'union'
p1748
I50
sS'acceptance'
p1749
I50
sS'growers'
p1750
I50
sS'payment'
p1751
I50
sS'commission'
p1752
I50
sS'returns'
p1753
I50
sS'april-june'
p1754
I50
sS'beet'
p1755
I500
sS'listed'
p1756
I50
sS'peru'
p1757
I50
sS'brazilian'
p1758
I50
sS'resulted'
p1759
I50
sS'threaten'
p1760
I50
sS'white'
p1761
I3150
sS'meeting'
p1762
I50
sS'progress'
p1763
I50
sS'bagged'
p1764
I400
sS'compensate'
p1765
I50
sS'direction'
p1766
I50
sS'buy'
p1767
I200
sS'interagency'
p1768
I50
sS'offering'
p1769
I100
sS'offer'
p1770
I150
sS'season'
p1771
I50
sS'offered'
p1772
I100
sS'releasing'
p1773
I50
sS'exporting'
p1774
I50
sS'yunnan'
p1775
I50
sS'bulk'
p1776
I250
sS'needed'
p1777
I50
sS'accu-weather'
p1778
I50
sS'representative'
p1779
I50
sS'cereal'
p1780
I50
sS'larger'
p1781
I50
sS'prices'
p1782
I150
sS'downturn'
p1783
I100
sS'thai'
p1784
I250
sS'representing'
p1785
I50
sS'australian'
p1786
I300
sS'volume'
p1787
I50
sS'divisions'
p1788
I100
sS'keeping'
p1789
I50
sS'1986/87'
p1790
I50
sS'cif'
p1791
I50
sS'participated'
p1792
I50
sS'seeking'
p1793
I50
sS'bill'
p1794
I50
sS'plunged'
p1795
I50
sS'transferred'
p1796
I50
sS'hits'
p1797
I50
sS'crystal'
p1798
I150
sS'soviets'
p1799
I50
sS'future'
p1800
I50
sS'trading'
p1801
I50
sS'rica'
p1802
I50
sS'favours'
p1803
I50
sS'industry'
p1804
I50
sS'tastes'
p1805
I100
sS'avoided'
p1806
I50
sS'plant'
p1807
I100
sS'irish'
p1808
I50
sS'cane'
p1809
I200
sS'prompt'
p1810
I50
sS'delay'
p1811
I50
sS'danish'
p1812
I50
sS'cents'
p1813
I50
sS'imports'
p1814
I150
sS'india'
p1815
I50
sS'indonesian'
p1816
I150
sS'unsold'
p1817
I100
sS'high'
p1818
I50
sS'raw'
p1819
I1650
sS'britain'
p1820
I50
sS'exist'
p1821
I50
sS'non-delivery'
p1822
I50
sS'foreign'
p1823
I50
sS'sells'
p1824
I50
sS'goals'
p1825
I50
sS'cotton'
p1826
I50
sS'sell'
p1827
I50
sS'forced'
p1828
I50
sS'diplomat'
p1829
I50
sS'estimated'
p1830
I50
sS'exportable'
p1831
I50
sS'hawaiian'
p1832
I50
sS'april'
p1833
I150
sS'large'
p1834
I100
sS'granted'
p1835
I50
sS'cumulative'
p1836
I50
sS'administration'
p1837
I100
sS'amount'
p1838
I150
sS'access'
p1839
I100
sS'cargoes'
p1840
I50
sS'traders'
p1841
I300
sS'details'
p1842
I400
sS'largest'
p1843
I250
sS'department'
p1844
I50
sS'products'
p1845
I200
sS'ordinary'
p1846
I50
sS'european'
p1847
I250
sS'poor'
p1848
I50
sS'area'
p1849
I50
sS'shortages'
p1850
I50
sS'oil'
p1851
I50
sS'refining'
p1852
I50
sS'bags'
p1853
I50
sS'sugarcane'
p1854
I50
sS'mauritian'
p1855
I50
sS'price'
p1856
I200
sS'earlier'
p1857
I100
sS'spot'
p1858
I50
sS'quota'
p1859
I150
sS'paid'
p1860
I50
sS'delayed'
p1861
I50
sS'leave'
p1862
I50
sS'dumping'
p1863
I50
sS'produce'
p1864
I50
sS'germany'
p1865
I50
sS'exported'
p1866
I50
sS'ownership'
p1867
I50
sS'queensland'
p1868
I50
sS'drastic'
p1869
I50
sS'cheaper'
p1870
I50
sS'grow'
p1871
I50
sS'man'
p1872
I50
sS'so-called'
p1873
I50
sS'cuban'
p1874
I400
sS'land'
p1875
I50
sS'suppliers'
p1876
I50
sS'calls'
p1877
I50
sS'coffee,'
p1878
I50
sS'approve'
p1879
I50
sS'indonesia'
p1880
I100
sS'traditional'
p1881
I100
sS'withdraw'
p1882
I400
sS'panama'
p1883
I50
sS'tonnes'
p1884
I2300
sS'recoverable'
p1885
I50
sS'soviet'
p1886
I150
sS'licht'
p1887
I50
sS'latest'
p1888
I50
ssg31
g32
sg33
(lp1889
sbsS'veg'
p1890
(i__main__
WordWeight
p1891
(dp1892
g4
(dp1893
S'consumers/industry'
p1894
I50
sS'switched'
p1895
I50
sS'veg'
p1896
I1200
sS'fate'
p1897
I50
sS'mexico'
p1898
I50
sS'u.s.'
p1899
I50
sS'rejects'
p1900
I50
sS'pounds'
p1901
I50
sS'eep'
p1902
I50
sS'products,'
p1903
I50
sS'hopes'
p1904
I50
sS'credits'
p1905
I50
sS'wary'
p1906
I50
ssg31
g32
sg33
(lp1907
sbsS'orange'
p1908
(i__main__
WordWeight
p1909
(dp1910
g4
(dp1911
S'set'
p1912
I100
sS'usda'
p1913
I150
sS'domestic'
p1914
I50
sS'officials'
p1915
I50
sS'total'
p1916
I50
sS'brazil'
p1917
I100
sS'quotas'
p1918
I50
sS'pct'
p1919
I50
sS'production'
p1920
I100
sS'brazilian'
p1921
I250
sS'policy'
p1922
I50
sS'stock'
p1923
I50
sS'u.s.'
p1924
I50
sS'oranges'
p1925
I50
sS'orange'
p1926
I5200
sS'concentrate'
p1927
I50
sS'plantations'
p1928
I50
sS'tariff'
p1929
I50
sS'concentrated'
p1930
I550
sS'1986/87'
p1931
I50
sS'frozen'
p1932
I200
sS'florida'
p1933
I200
sS'tonnes'
p1934
I50
sS'mandarin'
p1935
I150
sS'italian'
p1936
I100
ssg31
g32
sg33
(lp1937
sbsS'rice'
p1938
(i__main__
WordWeight
p1939
(dp1940
g4
(dp1941
S'replied'
p1942
I100
sS'summer'
p1943
I50
sS'producer'
p1944
I100
sS'domestic'
p1945
I50
sS'including'
p1946
I100
sS'japan'
p1947
I200
sS'rough'
p1948
I50
sS'july'
p1949
I50
sS'weekly'
p1950
I100
sS'cut'
p1951
I50
sS'vietnamese'
p1952
I50
sS'usdaprj-g'
p1953
I50
sS'insecticides'
p1954
I50
sS'pct'
p1955
I50
sS'acres'
p1956
I50
sS'usage'
p1957
I50
sS'main'
p1958
I50
sS'petition'
p1959
I50
sS'brown'
p1960
I50
sS'emergency'
p1961
I50
sS'food'
p1962
I150
sS'self-sufficiency'
p1963
I100
sS'early'
p1964
I100
sS'fall'
p1965
I50
sS'world'
p1966
I150
sS'continued'
p1967
I50
sS'discuss'
p1968
I50
sS'association'
p1969
I50
sS'countries'
p1970
I50
sS'crops'
p1971
I100
sS'fully'
p1972
I50
sS'yala'
p1973
I50
sS'ban'
p1974
I100
sS'spring'
p1975
I50
sS'kampuchea'
p1976
I50
sS'estimates'
p1977
I50
sS'japanese'
p1978
I100
sS'freeze'
p1979
I50
sS'breakthrough'
p1980
I50
sS'persuade'
p1981
I50
sS'export'
p1982
I50
sS'discussions'
p1983
I50
sS'substitute'
p1984
I50
sS'milled'
p1985
I200
sS'guarantees'
p1986
I50
sS'harvests'
p1987
I50
sS'washed'
p1988
I50
sS'access'
p1989
I50
sS'closed'
p1990
I50
sS'international'
p1991
I50
sS'boost'
p1992
I50
sS'corn'
p1993
I100
sS'wheat'
p1994
I150
sS'august'
p1995
I100
sS'maize'
p1996
I50
sS'u.s.'
p1997
I100
sS'restrictive'
p1998
I50
sS'outlays'
p1999
I50
sS'long-grained'
p2000
I50
sS'dlrs'
p2001
I50
sS'ministry'
p2002
I50
sS'resistant'
p2003
I50
sS'shift'
p2004
I50
sS'months'
p2005
I50
sS'step'
p2006
I50
sS'creates'
p2007
I50
sS'beans'
p2008
I50
sS'barriers'
p2009
I50
sS'comment'
p2010
I50
sS'major'
p2011
I100
sS'loan'
p2012
I50
sS'private'
p2013
I50
sS'tons'
p2014
I50
sS'total'
p2015
I50
sS'market'
p2016
I50
sS'cotton,'
p2017
I50
sS'double-crop'
p2018
I50
sS'madagascar'
p2019
I50
sS'service'
p2020
I50
sS'legislation'
p2021
I50
sS'moisture'
p2022
I50
sS'unmilled'
p2023
I50
sS'care'
p2024
I50
sS'buy'
p2025
I100
sS'door'
p2026
I50
sS'quarterly'
p2027
I50
sS'demand'
p2028
I50
sS'prices'
p2029
I100
sS'thai'
p2030
I300
sS'buying'
p2031
I50
sS'round-grained'
p2032
I50
sS'rice'
p2033
I20200
sS'tokyo'
p2034
I50
sS"japan's"
p2035
I50
sS'states'
p2036
I50
sS'protected'
p2037
I50
sS'promising'
p2038
I50
sS'country'
p2039
I50
sS'detailed'
p2040
I50
sS'imports'
p2041
I100
sS'subsidies'
p2042
I50
sS'share'
p2043
I100
sS'sales'
p2044
I50
sS'helped'
p2045
I50
sS'sharing'
p2046
I50
sS'subsisides'
p2047
I50
sS'council'
p2048
I50
sS'negotiations'
p2049
I100
sS'cotton'
p2050
I700
sS'endangered'
p2051
I50
sS'vital'
p2052
I50
sS'department'
p2053
I50
sS'grain'
p2054
I350
sS'farm-stored'
p2055
I50
sS'liberalisation'
p2056
I50
sS'paid'
p2057
I50
sS'hectares'
p2058
I50
sS'included'
p2059
I50
sS'480'
p2060
I50
sS'breakdowns'
p2061
I100
sS'policy'
p2062
I50
sS'indonesia'
p2063
I100
sS'yeutter'
p2064
I50
sS'commodities'
p2065
I100
sS'costs'
p2066
I50
sS'tonnes'
p2067
I700
sS'consumer'
p2068
I100
sS'quantity'
p2069
I50
ssg31
g32
sg33
(lp2070
sbsS'plywood'
p2071
(i__main__
WordWeight
p2072
(dp2073
g4
(dp2074
S'case'
p2075
I50
sS'announcement'
p2076
I50
sS'usda'
p2077
I50
sS'excluding'
p2078
I50
sS'anticipate'
p2079
I50
sS'administration'
p2080
I50
sS'sales'
p2081
I50
sS'rubber'
p2082
I50
sS'lumber'
p2083
I50
sS'export'
p2084
I50
sS'plywood'
p2085
I1500
sS'guarantees'
p2086
I50
sS'worth'
p2087
I50
sS'interpret'
p2088
I50
sS'expect'
p2089
I50
ssg31
g32
sg33
(lp2090
sbsS'coffee'
p2091
(i__main__
WordWeight
p2092
(dp2093
g4
(dp2094
S'forced'
p2095
I50
sS'responsible'
p2096
I50
sS'mexican'
p2097
I50
sS'1987-88'
p2098
I50
sS'heavily'
p2099
I100
sS'september'
p2100
I50
sS'global'
p2101
I50
sS'dependant'
p2102
I50
sS'trade'
p2103
I100
sS'produced'
p2104
I50
sS'sources'
p2105
I50
sS'manager'
p2106
I50
sS'london'
p2107
I300
sS'arrears'
p2108
I50
sS'renegotiate'
p2109
I50
sS'affect'
p2110
I50
sS'talks'
p2111
I100
sS'tough'
p2112
I50
sS'hamburg'
p2113
I50
sS'june'
p2114
I50
sS'hock'
p2115
I50
sS'ground'
p2116
I50
sS'move'
p2117
I50
sS'gaviria'
p2118
I50
sS'delegate'
p2119
I100
sS'monitor'
p2120
I150
sS'prices'
p2121
I50
sS'cherry'
p2122
I50
sS'delays'
p2123
I50
sS'april/may'
p2124
I50
sS'jar'
p2125
I50
sS'capabilities'
p2126
I50
sS'jan'
p2127
I50
sS'late'
p2128
I50
sS'quarterly'
p2129
I50
sS'stalemate'
p2130
I50
sS'main'
p2131
I100
sS'auction'
p2132
I50
sS'rica'
p2133
I50
sS'coffee'
p2134
I65700
sS'good'
p2135
I50
sS'march'
p2136
I150
sS'increased'
p2137
I50
sS'janeiro'
p2138
I50
sS'weakness'
p2139
I50
sS'introduce'
p2140
I50
sS'coast'
p2141
I50
sS'reimposition'
p2142
I100
sS'disrupted'
p2143
I50
sS'zimbabwe'
p2144
I100
sS'supplies'
p2145
I50
sS'report'
p2146
I50
sS'world'
p2147
I550
sS'items'
p2148
I50
sS'disappointed'
p2149
I50
sS'heats'
p2150
I50
sS'nairobi'
p2151
I50
sS'mild'
p2152
I50
sS'monsooned'
p2153
I50
sS'level'
p2154
I50
sS'crops'
p2155
I50
sS'issue'
p2156
I50
sS'drop'
p2157
I100
sS'attitude'
p2158
I50
sS'annually'
p2159
I50
sS'tropp'
p2160
I50
sS'slide'
p2161
I100
sS'predicted'
p2162
I50
sS'warned'
p2163
I50
sS'release'
p2164
I100
sS'output'
p2165
I50
sS'economy'
p2166
I50
sS'noted'
p2167
I50
sS'milar'
p2168
I50
sS'heavy'
p2169
I50
sS'development'
p2170
I50
sS'unroasted'
p2171
I100
sS'set'
p2172
I200
sS'pragmatic'
p2173
I50
sS'spring'
p2174
I50
sS'national'
p2175
I700
sS'roasted'
p2176
I100
sS'crop'
p2177
I50
sS'overburdened'
p2178
I50
sS'depends'
p2179
I50
sS'export'
p2180
I50
sS'expect'
p2181
I50
sS'year'
p2182
I300
sS'calendar'
p2183
I100
sS'drinks'
p2184
I50
sS'brazil'
p2185
I450
sS'reinstating'
p2186
I50
sS'ico'
p2187
I150
sS'opened'
p2188
I100
sS'farmers'
p2189
I50
sS'giving'
p2190
I50
sS'quantify'
p2191
I50
sS'review'
p2192
I50
sS'projected'
p2193
I50
sS'forecast'
p2194
I200
sS'current'
p2195
I250
sS'dlr'
p2196
I50
sS'restoring'
p2197
I50
sS'adapt'
p2198
I50
sS'shipment'
p2199
I50
sS'dutch'
p2200
I150
sS'affecting'
p2201
I50
sS'international'
p2202
I4250
sS'fall'
p2203
I100
sS'apply'
p2204
I50
sS'colombian'
p2205
I150
sS'announced'
p2206
I50
sS'malagasy'
p2207
I100
sS'accord'
p2208
I100
sS'latin'
p2209
I150
sS'resume'
p2210
I50
sS'marketing'
p2211
I100
sS'u.s.'
p2212
I100
sS'commercial'
p2213
I150
sS'delegates'
p2214
I50
sS'agreement'
p2215
I150
sS'horick'
p2216
I50
sS'sees'
p2217
I50
sS'york'
p2218
I350
sS'hostages'
p2219
I50
sS'ageing'
p2220
I50
sS'ugandan'
p2221
I100
sS'bangalore'
p2222
I50
sS'change'
p2223
I50
sS'receipts'
p2224
I50
sS'doldrums'
p2225
I50
sS'dlrs'
p2226
I200
sS'protect'
p2227
I50
sS'limits'
p2228
I50
sS'ministry'
p2229
I50
sS'gourmet'
p2230
I100
sS'involved'
p2231
I50
sS'trades'
p2232
I50
sS'dependence'
p2233
I50
sS'commented'
p2234
I50
sS'managua'
p2235
I100
sS'amount'
p2236
I150
sS'figures'
p2237
I50
sS'analysts'
p2238
I50
sS'gear'
p2239
I50
sS'retail'
p2240
I50
sS'drink'
p2241
I50
sS'restructures'
p2242
I50
sS'duty'
p2243
I50
sS'regulates'
p2244
I50
sS'inter-african'
p2245
I100
sS'state-run'
p2246
I200
sS'kaul'
p2247
I150
sS'private'
p2248
I100
sS'cocoa'
p2249
I150
sS'weather'
p2250
I50
sS'weak'
p2251
I50
sS'pct'
p2252
I50
sS'colombia'
p2253
I550
sS'stabilisation'
p2254
I50
sS'reached'
p2255
I50
sS'rican'
p2256
I100
sS'exclusively'
p2257
I50
sS'open'
p2258
I100
sS'decline'
p2259
I150
sS'madagascar'
p2260
I150
sS'stocks'
p2261
I50
sS'heads'
p2262
I50
sS'quality'
p2263
I100
sS'agree'
p2264
I50
sS'union'
p2265
I50
sS'limit'
p2266
I100
sS'tenders'
p2267
I50
sS'payment'
p2268
I50
sS'start'
p2269
I100
sS'tonnes'
p2270
I200
sS'certified'
p2271
I50
sS'state-controlled'
p2272
I50
sS'brazilian'
p2273
I1500
sS'biggest'
p2274
I100
sS'robusta'
p2275
I300
sS'meeting'
p2276
I150
sS'today'
p2277
I50
sS'buy'
p2278
I200
sS"brazil's"
p2279
I50
sS'peru'
p2280
I150
sS'offering'
p2281
I50
sS'registered'
p2282
I50
sS'line'
p2283
I50
sS'delivery'
p2284
I50
sS'failure'
p2285
I50
sS'skeptically'
p2286
I50
sS'falling'
p2287
I200
sS'announce'
p2288
I50
sS'sold'
p2289
I50
sS'thai'
p2290
I250
sS'present'
p2291
I100
sS'unsold'
p2292
I50
sS'target'
p2293
I100
sS'ibc'
p2294
I50
sS'diplomatic'
p2295
I50
sS'authority'
p2296
I50
sS'impasse'
p2297
I50
sS'future'
p2298
I100
sS'oversupplied'
p2299
I50
sS'country'
p2300
I150
sS'trading'
p2301
I100
sS'distribution'
p2302
I50
sS'outcome'
p2303
I50
sS'pulls'
p2304
I50
sS'passes'
p2305
I50
sS'launched'
p2306
I50
sS'pound'
p2307
I50
sS'ordered'
p2308
I50
sS'give'
p2309
I50
sS'cents'
p2310
I50
sS'monitoring'
p2311
I50
sS'philippine'
p2312
I100
sS'indonesian'
p2313
I200
sS'high'
p2314
I50
sS'rio'
p2315
I50
sS'britain'
p2316
I50
sS'selling'
p2317
I100
sS'upscale'
p2318
I50
sS'reviewing'
p2319
I50
sS'uganda'
p2320
I50
sS'tea'
p2321
I200
sS'kenya'
p2322
I100
sS'plunge'
p2323
I50
sS'regulate'
p2324
I100
sS'negotiations'
p2325
I50
sS'supporters'
p2326
I50
sS'sell'
p2327
I400
sS'bags'
p2328
I400
sS'exportable'
p2329
I50
sS'processors'
p2330
I50
sS'april'
p2331
I50
sS'pay'
p2332
I50
sS'means'
p2333
I50
sS'american'
p2334
I350
sS'traders'
p2335
I50
sS'flood'
p2336
I50
sS'arabica'
p2337
I50
sS'setting'
p2338
I50
sS'milds'
p2339
I200
sS'earnings'
p2340
I100
sS'pure'
p2341
I50
sS'largest'
p2342
I300
sS'declines'
p2343
I50
sS'zimbabwean'
p2344
I50
sS'movements'
p2345
I50
sS'kenyan'
p2346
I100
sS'european'
p2347
I350
sS'week'
p2348
I50
sS're-route'
p2349
I50
sS'singapore'
p2350
I100
sS'price'
p2351
I100
sS'consignments'
p2352
I50
sS'reach'
p2353
I50
sS'helpful'
p2354
I50
sS'reflect'
p2355
I50
sS'restoration'
p2356
I100
sS'pave'
p2357
I50
sS"colombia's"
p2358
I50
sS'ferries'
p2359
I50
sS'imported'
p2360
I150
sS're-routes'
p2361
I50
sS'overseas'
p2362
I100
sS'damage'
p2363
I50
sS'supports'
p2364
I50
sS'exports'
p2365
I250
sS'payable'
p2366
I50
sS'neill'
p2367
I50
sS'indonesia'
p2368
I100
sS'steady'
p2369
I100
sS'commodities'
p2370
I100
sS'cigarettes'
p2371
I50
sS'maintain'
p2372
I50
sS'green'
p2373
I850
sS'push'
p2374
I100
sS'weigh'
p2375
I50
sS'senior'
p2376
I50
sS'years'
p2377
I100
sS'consumer'
p2378
I50
sS'reintroduce'
p2379
I100
sS'fact'
p2380
I50
ssg31
g32
sg33
(lp2381
sbsS'propane'
p2382
(i__main__
WordWeight
p2383
(dp2384
g4
(dp2385
S'gsp'
p2386
I50
sS'raised'
p2387
I50
sS'gulf'
p2388
I50
sS'tonne'
p2389
I50
sS'propane'
p2390
I1900
sS'fluctuation'
p2391
I50
sS'price'
p2392
I50
sS'receipt'
p2393
I50
sS'spot'
p2394
I50
sS'bought'
p2395
I50
sS'submit'
p2396
I100
sS'cargoes'
p2397
I100
sS'delivery'
p2398
I50
sS'sea'
p2399
I50
sS'prices'
p2400
I50
sS'delivered'
p2401
I50
sS'posted'
p2402
I50
sS'left'
p2403
I50
ssg31
g32
sg33
(lp2404
sbsS'earn'
p2405
(i__main__
WordWeight
p2406
(dp2407
g4
(dp2408
S'earn'
p2409
I2300
sS'mcdonald'
p2410
I50
sS'company'
p2411
I350
sS'navistar'
p2412
I50
sS'expects'
p2413
I150
sS'metals'
p2414
I50
sS'april'
p2415
I50
sS'morris'
p2416
I50
sS'isn'
p2417
I50
sS'year'
p2418
I50
sS'expected'
p2419
I50
sS'arvin'
p2420
I50
sS'technologies'
p2421
I50
sS'arco'
p2422
I50
sS'maker'
p2423
I50
sS'projects'
p2424
I50
ssg31
g32
sg33
(lp2425
sbsS'bean'
p2426
(i__main__
WordWeight
p2427
(dp2428
g4
(dp2429
S'bean'
p2430
I200
sS'red'
p2431
I100
ssg31
g32
sg33
(lp2432
sbsS'stg'
p2433
(i__main__
WordWeight
p2434
(dp2435
g4
(dp2436
S'billion'
p2437
I200
sS'stg'
p2438
I1000
sS'mln'
p2439
I300
ssg31
g32
sg33
(lp2440
sbsS'silver'
p2441
(i__main__
WordWeight
p2442
(dp2443
g4
(dp2444
S'operations'
p2445
I50
sS'gold'
p2446
I400
sS'produces'
p2447
I50
sS'domestic'
p2448
I50
sS'major'
p2449
I50
sS'actions'
p2450
I50
sS'month'
p2451
I50
sS'ounces'
p2452
I650
sS'producer'
p2453
I50
sS'suspending'
p2454
I50
sS'production'
p2455
I50
sS'equity'
p2456
I250
sS'increased'
p2457
I50
sS'government'
p2458
I50
sS'dollar'
p2459
I100
sS'world'
p2460
I100
sS'silver'
p2461
I15450
sS'stabilize'
p2462
I50
sS'level'
p2463
I50
sS'noted'
p2464
I50
sS'trend'
p2465
I50
sS'kilos'
p2466
I50
sS'year'
p2467
I100
sS'margins'
p2468
I100
sS"peru's"
p2469
I50
sS'review'
p2470
I50
sS'gold,'
p2471
I50
sS'cooperation'
p2472
I150
sS'issue'
p2473
I50
sS'jan-dec'
p2474
I50
sS'u.s.'
p2475
I50
sS'put'
p2476
I50
sS'british'
p2477
I50
sS'foreign'
p2478
I50
sS'april'
p2479
I100
sS'ounce'
p2480
I250
sS'leading'
p2481
I150
sS'outlook'
p2482
I100
sS'filtering'
p2483
I50
sS'froze'
p2484
I50
sS'grade'
p2485
I100
sS'pct'
p2486
I50
sS'refined'
p2487
I200
sS'market'
p2488
I100
sS'platinum'
p2489
I50
sS'basis'
p2490
I50
sS'monthly'
p2491
I100
sS'positive'
p2492
I100
sS'program'
p2493
I50
sS'ton'
p2494
I50
sS'peru'
p2495
I50
sS'december'
p2496
I100
sS'biggest'
p2497
I50
sS'interest'
p2498
I100
sS'quantities'
p2499
I50
sS'sufficient'
p2500
I50
sS'delivery'
p2501
I50
sS'slashed'
p2502
I50
sS'prices'
p2503
I50
sS'freeze'
p2504
I150
sS'government-marketed'
p2505
I50
sS'grammes'
p2506
I50
sS'mln'
p2507
I50
sS'policies'
p2508
I50
sS'boswell'
p2509
I50
sS'sees'
p2510
I50
sS'mexico'
p2511
I50
sS'imports'
p2512
I100
sS'sales'
p2513
I150
sS'manner'
p2514
I50
sS'rally'
p2515
I100
sS'sell'
p2516
I50
sS'information'
p2517
I50
sS'traders'
p2518
I50
sS'majority'
p2519
I50
sS'largest'
p2520
I100
sS'stock'
p2521
I50
sS'price'
p2522
I400
sS'falls'
p2523
I50
sS'montagu'
p2524
I100
sS'produce'
p2525
I50
sS'stocks'
p2526
I100
sS'manifested'
p2527
I50
sS'futures'
p2528
I50
sS'maintain'
p2529
I50
sS'weights'
p2530
I50
sS'coordinate'
p2531
I50
sS'tonnes'
p2532
I50
sS'diversify'
p2533
I50
sS'quantity'
p2534
I100
ssg31
g32
sg33
(lp2535
sbsS'peseta'
p2536
(i__main__
WordWeight
p2537
(dp2538
g4
(dp2539
S'peseta'
p2540
I300
sS'mln'
p2541
I50
sS'convertible'
p2542
I50
sS'normal'
p2543
I50
ssg31
g32
sg33
(lp2544
sbsS'meal'
p2545
(i__main__
WordWeight
p2546
(dp2547
g4
(dp2548
S'copra'
p2549
I150
sS'soybeans'
p2550
I100
sS'imports'
p2551
I100
sS'fish'
p2552
I350
sS'exports'
p2553
I50
sS'pct'
p2554
I50
sS'foreign'
p2555
I100
sS'pellets'
p2556
I1100
sS'bean'
p2557
I100
sS'parts'
p2558
I50
sS'rapeseed'
p2559
I400
sS'soybean'
p2560
I2050
sS'cake'
p2561
I800
sS'protein'
p2562
I50
sS'oilcake'
p2563
I100
sS'meal'
p2564
I11100
ssg31
g32
sg33
(lp2565
sbsS'pork'
p2566
(i__main__
WordWeight
p2567
(dp2568
g4
(dp2569
S'week'
p2570
I50
sS'pork'
p2571
I800
sS'smaller'
p2572
I50
sS'frozen'
p2573
I100
sS'cent'
p2574
I50
sS'interest'
p2575
I50
sS'report'
p2576
I100
ssg31
g32
sg33
(lp2577
sbsS'tea'
p2578
(i__main__
WordWeight
p2579
(dp2580
g4
(dp2581
S'pakistan'
p2582
I150
sS'suspend'
p2583
I50
sS'remained'
p2584
I50
sS'tea'
p2585
I5000
sS'domestic'
p2586
I50
sS'exports'
p2587
I50
sS'packet'
p2588
I100
sS'kilos'
p2589
I100
sS'kenya'
p2590
I150
sS'curled'
p2591
I50
sS"kenya's"
p2592
I50
sS'controls'
p2593
I50
sS'hard-pack'
p2594
I50
sS'reuters'
p2595
I50
sS'inquiry'
p2596
I50
sS'imports'
p2597
I50
sS'include'
p2598
I50
sS'markets'
p2599
I50
sS'damaging'
p2600
I50
sS'coffee'
p2601
I150
sS'australia'
p2602
I50
sS'kenyan'
p2603
I100
sS'component'
p2604
I50
sS'bulk'
p2605
I50
sS'lankan'
p2606
I50
sS'link'
p2607
I50
sS'caesium'
p2608
I50
sS'showed'
p2609
I50
sS'tobacco'
p2610
I100
sS'country'
p2611
I50
sS'consumed'
p2612
I50
sS'annual'
p2613
I50
sS'companies'
p2614
I50
sS'days'
p2615
I50
sS'thousands'
p2616
I50
sS'announced'
p2617
I50
sS'qualities'
p2618
I50
sS'ctc'
p2619
I50
sS'making'
p2620
I50
sS'diversify'
p2621
I50
sS'soviet'
p2622
I50
ssg31
g32
sg33
(lp2623
sbsS'palm'
p2624
(i__main__
WordWeight
p2625
(dp2626
g4
(dp2627
S'coconut'
p2628
I150
sS'barter'
p2629
I50
sS'soybeans'
p2630
I50
sS'imports'
p2631
I100
sS'major'
p2632
I50
sS'authority'
p2633
I50
sS'sign'
p2634
I50
sS'expect'
p2635
I50
sS'palm'
p2636
I14900
sS'added'
p2637
I50
sS'including'
p2638
I50
sS'fertilisers'
p2639
I50
sS'year'
p2640
I50
sS'claimed'
p2641
I100
sS'refined'
p2642
I150
sS'deodorised'
p2643
I500
sS'ratio'
p2644
I50
sS'sell'
p2645
I50
sS'rubber'
p2646
I100
sS'shown'
p2647
I50
sS'imported'
p2648
I150
sS'producer'
p2649
I100
sS'beef'
p2650
I50
sS'giving'
p2651
I50
sS'granted'
p2652
I50
sS'traders'
p2653
I50
sS'discredit'
p2654
I50
sS'production'
p2655
I100
sS'plywood'
p2656
I50
sS'largest'
p2657
I50
sS'crude'
p2658
I650
sS'international'
p2659
I50
sS'palmkernel'
p2660
I50
sS'today'
p2661
I50
sS'build'
p2662
I50
sS'indonesian'
p2663
I200
sS'oil'
p2664
I350
sS'indian'
p2665
I50
sS'season'
p2666
I50
sS'price'
p2667
I100
sS'trading'
p2668
I50
sS'substitute'
p2669
I50
sS'asa'
p2670
I50
sS'making'
p2671
I50
sS'import'
p2672
I150
sS'prices'
p2673
I50
sS'world'
p2674
I50
sS'buys'
p2675
I50
sS'expanding'
p2676
I50
sS'february'
p2677
I100
sS'cif'
p2678
I50
sS'country'
p2679
I50
sS'require'
p2680
I50
sS'indonesia'
p2681
I50
sS'malaysian'
p2682
I400
sS'amount'
p2683
I50
sS'growth'
p2684
I50
sS'processed'
p2685
I200
sS'mature'
p2686
I50
sS'shortage'
p2687
I50
sS'tonnes'
p2688
I300
sS'rbd'
p2689
I950
sS'university'
p2690
I50
sS'raises'
p2691
I50
ssg31
g32
sg33
(lp2692
sbsS'cattle'
p2693
(i__main__
WordWeight
p2694
(dp2695
g4
(dp2696
S'prospect'
p2697
I50
sS'brucellosis'
p2698
I50
sS'major'
p2699
I50
sS'mexican'
p2700
I50
sS'figures'
p2701
I100
sS'weight'
p2702
I50
sS'spreading'
p2703
I50
sS'reduction'
p2704
I100
sS'number'
p2705
I50
sS'decreed'
p2706
I50
sS'lighter-weight'
p2707
I100
sS'cattle'
p2708
I7200
sS'lethal'
p2709
I50
sS'rally'
p2710
I50
sS'settlement'
p2711
I50
sS'total'
p2712
I50
sS'susceptible'
p2713
I50
sS'mills'
p2714
I50
sS'live'
p2715
I500
sS'sugar'
p2716
I50
sS'traders'
p2717
I50
sS'state'
p2718
I100
sS'quarterly'
p2719
I150
sS'marketings'
p2720
I50
sS'heavier'
p2721
I50
sS'movement'
p2722
I50
sS'ginn'
p2723
I50
sS'supporting'
p2724
I50
sS'head'
p2725
I100
sS'march'
p2726
I50
sS'marketing'
p2727
I50
sS'ambitous'
p2728
I50
sS'rise'
p2729
I50
sS'delivery'
p2730
I50
sS'wetter'
p2731
I50
sS'putting'
p2732
I50
sS'lighter'
p2733
I200
sS'report'
p2734
I50
sS'feeder'
p2735
I50
sS'cuban'
p2736
I50
sS'actual'
p2737
I50
sS'calculated'
p2738
I50
sS'months'
p2739
I150
sS'mln'
p2740
I50
sS'reports'
p2741
I50
sS'place'
p2742
I50
sS'newspaper'
p2743
I50
sS'noted'
p2744
I50
sS'latest'
p2745
I50
ssg31
g32
sg33
(lp2746
sbsS'copra'
p2747
(i__main__
WordWeight
p2748
(dp2749
g4
(dp2750
S'buyers'
p2751
I50
sS'develop'
p2752
I50
sS'avoiding'
p2753
I50
sS'philippines'
p2754
I50
sS'indonesia'
p2755
I50
sS'philippine'
p2756
I50
sS'research'
p2757
I50
sS'rubber'
p2758
I50
sS'warning'
p2759
I50
sS'products'
p2760
I50
sS'copra'
p2761
I1200
sS'import'
p2762
I50
sS'duties'
p2763
I50
ssg31
g32
sg33
(lp2764
sbsS'wheat'
p2765
(i__main__
WordWeight
p2766
(dp2767
g4
(dp2768
S'limited'
p2769
I50
sS'irrigation'
p2770
I50
sS'concept'
p2771
I50
sS'chinese'
p2772
I100
sS'global'
p2773
I100
sS'deliveries'
p2774
I50
sS'month'
p2775
I50
sS'cancels'
p2776
I100
sS'adamantly'
p2777
I50
sS'cyprus'
p2778
I50
sS'program'
p2779
I300
sS'alberta'
p2780
I50
sS'breach'
p2781
I50
sS'include'
p2782
I50
sS'worth'
p2783
I100
sS'egyptian'
p2784
I50
sS'saskatchewan'
p2785
I50
sS'rise'
p2786
I50
sS'acreage'
p2787
I100
sS'fall'
p2788
I50
sS'governments'
p2789
I50
sS'dominate'
p2790
I50
sS'level'
p2791
I100
sS'companies'
p2792
I50
sS'wednesday'
p2793
I50
sS'8,392'
p2794
I50
sS'estimates'
p2795
I50
sS'crop'
p2796
I350
sS'bread-making'
p2797
I150
sS'enhancement'
p2798
I50
sS'oda'
p2799
I50
sS'estimated'
p2800
I50
sS'lower-priced'
p2801
I50
sS'cargo'
p2802
I50
sS'topsoils'
p2803
I50
sS'imported'
p2804
I50
sS'current'
p2805
I50
sS'volatile'
p2806
I50
sS'supplies'
p2807
I50
sS'told'
p2808
I50
sS'hebei'
p2809
I50
sS'exchange'
p2810
I150
sS'french'
p2811
I500
sS'met'
p2812
I50
sS'china'
p2813
I500
sS'address'
p2814
I50
sS'iraq'
p2815
I50
sS'canadian'
p2816
I450
sS'rests'
p2817
I50
sS'reports'
p2818
I100
sS'products'
p2819
I50
sS'u.k.'
p2820
I200
sS'panamanian'
p2821
I50
sS'birdseed'
p2822
I50
sS'brought'
p2823
I50
sS'total'
p2824
I50
sS'market'
p2825
I150
sS'consumption'
p2826
I50
sS'tenders'
p2827
I50
sS'opposed'
p2828
I100
sS'dns'
p2829
I150
sS'australian'
p2830
I1150
sS'prev'
p2831
I50
sS'four-mln-tonne'
p2832
I50
sS'hoffman'
p2833
I100
sS'sharply'
p2834
I50
sS'iii'
p2835
I50
sS'bushels'
p2836
I50
sS'rice'
p2837
I250
sS'onic'
p2838
I50
sS'making'
p2839
I50
sS'control'
p2840
I50
sS'purchases'
p2841
I300
sS'india'
p2842
I50
sS'states'
p2843
I50
sS'requirements'
p2844
I50
sS'winter'
p2845
I2700
sS'imminent'
p2846
I50
sS'oppose'
p2847
I100
sS'kcbt'
p2848
I150
sS'stand'
p2849
I50
sS'lanka'
p2850
I50
sS'types'
p2851
I50
sS'purchase'
p2852
I100
sS'denaturable'
p2853
I100
sS'17,683'
p2854
I50
sS'preparing'
p2855
I100
sS'origin'
p2856
I100
sS'september'
p2857
I100
sS'polards'
p2858
I50
sS'expects'
p2859
I50
sS'trade'
p2860
I150
sS'timing'
p2861
I50
sS'pollards'
p2862
I50
sS'fanning'
p2863
I50
sS'group'
p2864
I50
sS'presence'
p2865
I50
sS'pct'
p2866
I100
sS'acres'
p2867
I100
sS'durum'
p2868
I900
sS'production'
p2869
I100
sS'pl-480'
p2870
I50
sS'argentina'
p2871
I50
sS'main'
p2872
I100
sS'argentine'
p2873
I50
sS'devastated'
p2874
I50
sS'cutting'
p2875
I50
sS'discuss'
p2876
I100
sS'association'
p2877
I350
sS'bread'
p2878
I450
sS'february'
p2879
I150
sS'coursed'
p2880
I100
sS'january'
p2881
I50
sS'drop'
p2882
I50
sS'week'
p2883
I50
sS'determine'
p2884
I50
sS'hard'
p2885
I150
sS'expect'
p2886
I100
sS'year'
p2887
I250
sS'canada'
p2888
I150
sS'bullish'
p2889
I50
sS'profit'
p2890
I50
sS'oklahoma'
p2891
I50
sS'viability'
p2892
I50
sS'increase'
p2893
I50
sS'barley'
p2894
I100
sS'intervention'
p2895
I250
sS'u.s.'
p2896
I600
sS'possibility'
p2897
I50
sS'estimate'
p2898
I50
sS'bangladesh'
p2899
I50
sS'british'
p2900
I100
sS'pollard'
p2901
I50
sS'american'
p2902
I50
sS'expecting'
p2903
I50
sS'retain'
p2904
I50
sS'bushel'
p2905
I50
sS'feed'
p2906
I2050
sS'major'
p2907
I250
sS'usda'
p2908
I50
sS'grade'
p2909
I50
sS'wages'
p2910
I50
sS'quality'
p2911
I50
sS'destinations'
p2912
I50
sS'rejects'
p2913
I100
sS'leading'
p2914
I50
sS'system'
p2915
I100
sS'needed'
p2916
I50
sS'white'
p2917
I100
sS'selling'
p2918
I200
sS'option'
p2919
I100
sS'season'
p2920
I150
sS'moscow'
p2921
I250
sS'july'
p2922
I100
sS'abandoning'
p2923
I50
sS'limiting'
p2924
I50
sS'lbs'
p2925
I50
sS'sees'
p2926
I50
sS'outstanding'
p2927
I100
sS'imports'
p2928
I150
sS'unchanged'
p2929
I50
sS'tonight'
p2930
I50
sS'7,209,'
p2931
I50
sS'built'
p2932
I50
sS'internal'
p2933
I50
sS'chairman'
p2934
I50
sS'signup'
p2935
I50
sS'corn,'
p2936
I50
sS'price'
p2937
I400
sS'plan'
p2938
I50
sS'america'
p2939
I50
sS'awb'
p2940
I50
sS'zealand'
p2941
I50
sS'average'
p2942
I100
sS'points'
p2943
I50
sS'quantity'
p2944
I50
sS'sown'
p2945
I100
sS'soviets'
p2946
I50
sS'favor'
p2947
I50
sS'sugar'
p2948
I100
sS'planted'
p2949
I50
sS'wool'
p2950
I50
sS'quintal'
p2951
I50
sS'dependent'
p2952
I50
sS'valuable'
p2953
I50
sS'international'
p2954
I150
sS'report'
p2955
I150
sS'areas'
p2956
I50
sS'segregate'
p2957
I50
sS'sowing'
p2958
I50
sS'fields'
p2959
I50
sS'quarantine'
p2960
I50
sS'year-old'
p2961
I50
sS'release'
p2962
I100
sS'secretary'
p2963
I50
sS'requirement'
p2964
I50
sS'86/87'
p2965
I50
sS'national'
p2966
I50
sS'yugoslavia'
p2967
I50
sS'subcommittee'
p2968
I300
sS'greece'
p2969
I50
sS'brazil'
p2970
I100
sS'farmers'
p2971
I50
sS'dlr'
p2972
I50
sS'state'
p2973
I50
sS'affecting'
p2974
I50
sS'bought'
p2975
I50
sS'europe'
p2976
I50
sS'sold'
p2977
I100
sS'loading'
p2978
I50
sS'key'
p2979
I50
sS'approval'
p2980
I50
sS'prospects'
p2981
I50
sS'improved'
p2982
I50
sS'limits'
p2983
I50
sS'reported'
p2984
I50
sS'subproducts'
p2985
I50
sS'region'
p2986
I50
sS'foreign'
p2987
I50
sS'april'
p2988
I50
sS'long-term'
p2989
I50
sS'adapted'
p2990
I50
sS'load'
p2991
I50
sS'supply'
p2992
I150
sS'loan'
p2993
I100
sS'subsidised'
p2994
I50
sS'period'
p2995
I50
sS'community'
p2996
I50
sS'tons'
p2997
I50
sS'union'
p2998
I350
sS'subsidy'
p2999
I50
sS'offers'
p3000
I50
sS'combined'
p3001
I100
sS'interest'
p3002
I50
sS'algeria'
p3003
I150
sS'quantities'
p3004
I50
sS'offered'
p3005
I100
sS'bulk'
p3006
I150
sS'demand'
p3007
I50
sS'prices'
p3008
I100
sS'yugoslav'
p3009
I50
sS'spain'
p3010
I100
sS'bill'
p3011
I250
sS'mln'
p3012
I150
sS'situation'
p3013
I50
sS'protein'
p3014
I150
sS'damaged'
p3015
I50
sS'italy'
p3016
I100
sS'pay'
p3017
I50
sS'cumulative'
p3018
I100
sS'physical'
p3019
I50
sS'higher'
p3020
I50
sS'breakdown'
p3021
I50
sS'bonus'
p3022
I650
sS'forecasts'
p3023
I50
sS'producers'
p3024
I100
sS'hectares'
p3025
I150
sS'18,616'
p3026
I50
sS'tighter'
p3027
I50
sS'poland'
p3028
I50
sS'indonesia'
p3029
I50
sS'qualities'
p3030
I50
sS'soviet'
p3031
I200
sS'ccc'
p3032
I100
sS'left'
p3033
I100
sS'comment'
p3034
I100
sS'domestic'
p3035
I50
sS'competitive'
p3036
I50
sS'risking'
p3037
I50
sS'sources'
p3038
I100
sS'stored'
p3039
I50
sS'predicts'
p3040
I50
sS'taiwan'
p3041
I50
sS'previous'
p3042
I50
sS'announcement'
p3043
I50
sS'cut'
p3044
I50
sS'spread'
p3045
I50
sS'board'
p3046
I50
sS'usage'
p3047
I100
sS'competitiveness'
p3048
I50
sS'indonesian'
p3049
I50
sS'australia'
p3050
I300
sS'march'
p3051
I150
sS'provisions'
p3052
I150
sS'bid'
p3053
I200
sS'possibly'
p3054
I50
sS'20,349'
p3055
I50
sS'world'
p3056
I300
sS'pounds'
p3057
I50
sS'eep'
p3058
I850
sS'benefit'
p3059
I50
sS'soft'
p3060
I2050
sS'essential'
p3061
I50
sS'deal'
p3062
I50
sS'elevators'
p3063
I50
sS'spring'
p3064
I600
sS'urgent'
p3065
I50
sS'added'
p3066
I50
sS'near-record'
p3067
I50
sS'feedgrains'
p3068
I50
sS'wheat'
p3069
I95900
sS"china's"
p3070
I50
sS'marketing'
p3071
I150
sS'corn'
p3072
I450
sS'dlrs'
p3073
I200
sS'tonnesworth'
p3074
I100
sS'accepts'
p3075
I50
sS'srw'
p3076
I300
sS'mixed'
p3077
I50
sS'urges'
p3078
I50
sS'sept'
p3079
I50
sS'flawed'
p3080
I50
sS'cocoa'
p3081
I50
sS'ussr'
p3082
I300
sS'bu,'
p3083
I50
sS'nsw'
p3084
I50
sS'uncertainties'
p3085
I50
sS'krenzler'
p3086
I50
sS'authorized'
p3087
I50
sS'brazilian'
p3088
I250
sS'oilseeds'
p3089
I50
sS'record'
p3090
I50
sS'head'
p3091
I100
sS'buy'
p3092
I550
sS'subsidized'
p3093
I1050
sS'offering'
p3094
I50
sS'offer'
p3095
I150
sS'lows'
p3096
I50
sS'canada-egypt'
p3097
I50
sS'analyst'
p3098
I50
sS'buying'
p3099
I100
sS'official'
p3100
I50
sS'bids'
p3101
I100
sS'harvested'
p3102
I50
sS'limit'
p3103
I50
sS'tonne'
p3104
I150
sS'guesses'
p3105
I50
sS'deaths'
p3106
I50
sS'18,345'
p3107
I50
sS'sales'
p3108
I250
sS'covers'
p3109
I100
sS'reopening'
p3110
I50
sS'cbt'
p3111
I150
sS'syrian'
p3112
I50
sS'cotton'
p3113
I100
sS'planting'
p3114
I50
sS'department'
p3115
I250
sS'company'
p3116
I50
sS'revision'
p3117
I50
sS'poor'
p3118
I50
sS'subsidize'
p3119
I50
sS'lading'
p3120
I50
sS'june'
p3121
I50
sS'coverage'
p3122
I50
sS'stocks'
p3123
I50
sS'480'
p3124
I200
sS'premiums'
p3125
I50
sS'time'
p3126
I50
sS'tonnes'
p3127
I4150
ssg31
g32
sg33
(lp3128
sbsS'lead'
p3129
(i__main__
WordWeight
p3130
(dp3131
g4
(dp3132
S'copper'
p3133
I50
sS'u.k.'
p3134
I50
sS'oversupply'
p3135
I50
sS'grade'
p3136
I50
sS'lbs'
p3137
I50
sS'majeure'
p3138
I100
sS'states'
p3139
I50
sS'pushed'
p3140
I50
sS'tons'
p3141
I450
sS'result'
p3142
I50
sS'zinc'
p3143
I300
sS'cuts'
p3144
I50
sS'refined'
p3145
I200
sS'market'
p3146
I50
sS'ethyl'
p3147
I50
sS'consumption'
p3148
I50
sS'pct'
p3149
I250
sS'silver'
p3150
I50
sS'production'
p3151
I50
sS'raises'
p3152
I50
sS'lead-zinc'
p3153
I100
sS'price'
p3154
I150
sS'picture'
p3155
I50
sS'nil'
p3156
I100
sS'u.s.'
p3157
I150
sS'included'
p3158
I50
sS'lme'
p3159
I50
sS'buying'
p3160
I50
sS'lead'
p3161
I7400
sS'pounds'
p3162
I50
sS'canadian'
p3163
I50
sS'dedicated'
p3164
I50
sS'limit'
p3165
I50
sS'tonnes'
p3166
I450
sS'quarter'
p3167
I50
sS'soviet'
p3168
I50
sS'replacement'
p3169
I50
ssg31
g32
sg33
(lp3170
sbsS'ringgit'
p3171
(i__main__
WordWeight
p3172
(dp3173
g4
(dp3174
S'ringgit'
p3175
I200
sS'malaysian'
p3176
I50
sS'forecast'
p3177
I50
ssg31
g32
sg33
(lp3178
sbsS'castorseed'
p3179
(i__main__
WordWeight
p3180
(dp3181
g4
(dp3182
S'reduce'
p3183
I50
sS'domestic'
p3184
I50
sS'castorseed'
p3185
I200
ssg31
g32
sg33
(lp3186
sbsS'dlr'
p3187
(i__main__
WordWeight
p3188
(dp3189
g4
(dp3190
S'billion'
p3191
I650
sS'prevent'
p3192
I100
sS'cut'
p3193
I50
sS'aggressively'
p3194
I50
sS'mln'
p3195
I50
sS'highs'
p3196
I50
sS'reduce'
p3197
I50
sS'yeutter'
p3198
I50
sS'dlr'
p3199
I3600
sS'sizeable'
p3200
I50
sS'oppose'
p3201
I50
sS'legalises'
p3202
I100
sS'stable'
p3203
I50
sS'aid'
p3204
I100
sS'hold'
p3205
I100
sS'morgan<jpm>'
p3206
I50
sS'speculative'
p3207
I100
ssg31
g32
sg33
(lp3208
sbsS'barley'
p3209
(i__main__
WordWeight
p3210
(dp3211
g4
(dp3212
S'feed'
p3213
I50
sS'summer'
p3214
I50
sS'carryover'
p3215
I50
sS'tonne'
p3216
I100
sS'spring'
p3217
I50
sS'sales'
p3218
I50
sS'sources'
p3219
I50
sS'tons'
p3220
I100
sS'sea'
p3221
I50
sS'spanish'
p3222
I150
sS'ecus'
p3223
I100
sS'total'
p3224
I50
sS'bales'
p3225
I50
sS'market'
p3226
I250
sS'intervention'
p3227
I100
sS'sell'
p3228
I50
sS'maize'
p3229
I50
sS'italy'
p3230
I50
sS'winter'
p3231
I200
sS'pct'
p3232
I50
sS'acres'
p3233
I50
sS'barley'
p3234
I11400
sS'department'
p3235
I100
sS'price'
p3236
I50
sS'wheat'
p3237
I450
sS'maize,'
p3238
I50
sS'bonus'
p3239
I100
sS'season'
p3240
I100
sS'bid'
p3241
I100
sS'french'
p3242
I150
sS'part'
p3243
I50
sS'bushels'
p3244
I50
sS'dlrs'
p3245
I50
sS'oats'
p3246
I250
sS'sept'
p3247
I50
sS'mln'
p3248
I100
sS'eep'
p3249
I50
sS'non-spanish'
p3250
I50
sS'sorghum-x'
p3251
I50
sS'tonnes'
p3252
I1650
sS'requests'
p3253
I50
sS'italian'
p3254
I50
sS'sorghum'
p3255
I250
sS'order'
p3256
I50
sS'ccc'
p3257
I50
sS'bushel'
p3258
I50
ssg31
g32
sg33
(lp3259
sbsS'crude'
p3260
(i__main__
WordWeight
p3261
(dp3262
g4
(dp3263
S'limited'
p3264
I150
sS'100,000,'
p3265
I50
sS'chinese'
p3266
I100
sS'api'
p3267
I50
sS'randol'
p3268
I50
sS'global'
p3269
I50
sS'domestic'
p3270
I500
sS'major'
p3271
I100
sS'deliveries'
p3272
I50
sS'years'
p3273
I50
sS'discovered'
p3274
I50
sS'forbidding'
p3275
I100
sS'grades'
p3276
I650
sS'shut-in'
p3277
I100
sS'cuts'
p3278
I200
sS'japan'
p3279
I50
sS'june'
p3280
I50
sS'coordination'
p3281
I50
sS'synthetic'
p3282
I50
sS'current'
p3283
I50
sS'cut'
p3284
I100
sS'implying'
p3285
I50
sS'mln,'
p3286
I350
sS'companies'
p3287
I50
sS'revenue'
p3288
I50
sS'pct'
p3289
I350
sS'operational'
p3290
I50
sS'environment'
p3291
I50
sS'previously'
p3292
I50
sS'production'
p3293
I50
sS'buying'
p3294
I50
sS'supplies'
p3295
I50
sS'equity'
p3296
I50
sS'suspension'
p3297
I50
sS'main'
p3298
I50
sS'postings'
p3299
I100
sS'argentine'
p3300
I50
sS'venezuela'
p3301
I50
sS'exports'
p3302
I100
sS'australia'
p3303
I50
sS'maya'
p3304
I50
sS'gains'
p3305
I50
sS'hydrocarbons'
p3306
I50
sS'stop'
p3307
I50
sS'term'
p3308
I100
sS'ecuador-level'
p3309
I50
sS'negative-netback'
p3310
I50
sS'outlet'
p3311
I50
sS'fall'
p3312
I50
sS'affect'
p3313
I50
sS'continued'
p3314
I50
sS'day'
p3315
I250
sS'projects'
p3316
I50
sS'assigned'
p3317
I50
sS'february'
p3318
I100
sS'exxon'
p3319
I50
sS'bpd'
p3320
I1000
sS'doesn'
p3321
I100
sS'countries'
p3322
I50
sS'january'
p3323
I150
sS'reduces'
p3324
I50
sS'drop'
p3325
I100
sS'malaysian'
p3326
I50
sS'deals'
p3327
I50
sS'petro-canada'
p3328
I50
sS'settle'
p3329
I50
sS'saudi'
p3330
I200
sS'small'
p3331
I50
sS'<cgp>'
p3332
I50
sS'buy'
p3333
I50
sS'fixed'
p3334
I50
sS'noted'
p3335
I50
sS'barrels'
p3336
I1400
sS'development'
p3337
I50
sS'declared'
p3338
I50
sS'qtr'
p3339
I100
sS'deal'
p3340
I50
sS'mln'
p3341
I300
sS'pdvsa'
p3342
I50
sS'japanese'
p3343
I50
sS'majeure'
p3344
I50
sS'cash'
p3345
I50
sS'malaysia'
p3346
I50
sS'cost'
p3347
I100
sS'export'
p3348
I50
sS'expect'
p3349
I50
sS'sea'
p3350
I50
sS'year'
p3351
I50
sS'estimated'
p3352
I50
sS'marginal'
p3353
I50
sS'port'
p3354
I50
sS'shaif'
p3355
I50
sS'netbacks'
p3356
I100
sS'gross'
p3357
I150
sS'capacity'
p3358
I50
sS'factors'
p3359
I50
sS'quality'
p3360
I50
sS'group'
p3361
I50
sS'zakum'
p3362
I50
sS'increase'
p3363
I100
sS'dlr'
p3364
I250
sS'volatile'
p3365
I50
sS'assuming'
p3366
I100
sS'crude'
p3367
I63600
sS'import'
p3368
I100
sS'net'
p3369
I100
sS'conditions'
p3370
I50
sS'u.s.'
p3371
I100
sS'run'
p3372
I50
sS'belief'
p3373
I50
sS'degree'
p3374
I50
sS'exchange'
p3375
I50
sS'260,000,'
p3376
I50
sS'marketing'
p3377
I100
sS'sold'
p3378
I50
sS'weak'
p3379
I100
sS'pumping'
p3380
I50
sS'suez'
p3381
I50
sS'water'
p3382
I50
sS'reported'
p3383
I50
sS'explore'
p3384
I50
sS'california'
p3385
I100
sS'put'
p3386
I50
sS'wti'
p3387
I50
sS'post'
p3388
I50
sS'debt'
p3389
I50
sS'limit'
p3390
I50
sS'isthmus'
p3391
I50
sS'raise'
p3392
I400
sS'dlrs'
p3393
I250
sS'search'
p3394
I100
sS'goods'
p3395
I50
sS'world'
p3396
I50
sS'favourable'
p3397
I100
sS'institute'
p3398
I50
sS'country'
p3399
I50
sS'changed'
p3400
I450
sS'foreign'
p3401
I50
sS'april'
p3402
I100
sS'carries'
p3403
I50
sS'analysts'
p3404
I150
sS'corp'
p3405
I50
sS'traded'
p3406
I50
sS'500,000,'
p3407
I50
sS'lowers'
p3408
I50
sS'heavy'
p3409
I500
sS'raised'
p3410
I650
sS'suspend'
p3411
I200
sS'tone'
p3412
I50
sS'expects'
p3413
I100
sS'supply'
p3414
I100
sS'grade'
p3415
I50
sS'sweet'
p3416
I450
sS'loan'
p3417
I50
sS'period'
p3418
I50
sS'quotas'
p3419
I50
sS'opec'
p3420
I500
sS'river'
p3421
I50
sS'rising'
p3422
I50
sS'raises'
p3423
I2350
sS'suspended'
p3424
I100
sS'sees'
p3425
I50
sS'medium'
p3426
I100
sS'total'
p3427
I150
sS'30,000,'
p3428
I50
sS'estimate'
p3429
I100
sS'market'
p3430
I50
sS'1986'
p3431
I50
sS'decline'
p3432
I150
sS'conventional'
p3433
I50
sS'additional'
p3434
I100
sS'support'
p3435
I50
sS'initial'
p3436
I50
sS'arms'
p3437
I100
sS'oecd'
p3438
I50
sS'intermediate'
p3439
I200
sS'growth'
p3440
I100
sS'shipments'
p3441
I50
sS'series'
p3442
I50
sS'mcivor'
p3443
I50
sS'call'
p3444
I50
sS'australian'
p3445
I100
sS'venezuelan'
p3446
I150
sS'ecuador'
p3447
I350
sS'lowest'
p3448
I50
sS'compensate'
p3449
I50
sS'selling'
p3450
I50
sS'share'
p3451
I100
sS'company'
p3452
I50
sS'factor'
p3453
I50
sS'benchmark'
p3454
I450
sS'sales'
p3455
I50
sS'lowered'
p3456
I50
sS'runup'
p3457
I50
sS'priolo'
p3458
I50
sS'prices'
p3459
I750
sS'july'
p3460
I100
sS'tariff'
p3461
I50
sS'institution'
p3462
I50
sS'raising'
p3463
I50
sS'canadian'
p3464
I50
sS'east'
p3465
I50
sS'venezulean'
p3466
I50
sS'iranian'
p3467
I300
sS'hike'
p3468
I50
sS'coast'
p3469
I150
sS'official'
p3470
I50
sS'gasoline'
p3471
I50
sS'maximum'
p3472
I50
sS'duty'
p3473
I100
sS'nations'
p3474
I50
sS'sour'
p3475
I300
sS'values'
p3476
I50
sS'pennzoil'
p3477
I100
sS'firmer'
p3478
I50
sS'brent-grade'
p3479
I50
sS'futures'
p3480
I50
sS'proved'
p3481
I50
sS'figure'
p3482
I100
sS'mexico'
p3483
I100
sS'strait'
p3484
I100
sS'tax'
p3485
I150
sS'hills'
p3486
I100
sS'proven'
p3487
I50
sS'refinery'
p3488
I400
sS'reserves'
p3489
I100
sS'fighting'
p3490
I50
sS'return'
p3491
I100
sS'plunge'
p3492
I50
sS'increased'
p3493
I50
sS'sell'
p3494
I200
sS'steadier'
p3495
I50
sS'laden'
p3496
I50
sS'pay'
p3497
I300
sS'divided'
p3498
I50
sS'european'
p3499
I50
sS'storage'
p3500
I50
sS'amount'
p3501
I250
sS'purchasing'
p3502
I50
sS'surveillance'
p3503
I50
sS'march'
p3504
I100
sS'lift'
p3505
I50
sS'brent'
p3506
I50
sS'brazilian'
p3507
I50
sS'largest'
p3508
I50
sS'higher'
p3509
I100
sS'week'
p3510
I50
sS'highs'
p3511
I50
sS'oil'
p3512
I50
sS'ecuadorean'
p3513
I300
sS'congress'
p3514
I50
sS'price'
p3515
I200
sS'spot'
p3516
I100
sS'expectation'
p3517
I50
sS'chance'
p3518
I50
sS'produce'
p3519
I50
sS'transfers'
p3520
I50
sS'qatari'
p3521
I50
sS'stocks'
p3522
I100
sS'200,000,'
p3523
I50
sS'lows'
p3524
I50
sS'purchase'
p3525
I100
sS'short'
p3526
I50
sS'alaskan'
p3527
I50
sS'light'
p3528
I100
sS'average'
p3529
I200
sS'sensitive'
p3530
I50
sS'urals'
p3531
I50
sS'daily'
p3532
I250
sS'costs'
p3533
I50
sS'relief'
p3534
I50
sS'kuwait'
p3535
I50
sS'tonnes'
p3536
I100
sS'barrel'
p3537
I200
sS'recoverable'
p3538
I50
sS'filing'
p3539
I50
sS'western'
p3540
I50
ssg31
g32
sg33
(lp3541
sbsS'red'
p3542
(i__main__
WordWeight
p3543
(dp3544
g4
(dp3545
S'soybeans'
p3546
I50
sS'money'
p3547
I50
sS'requirement'
p3548
I50
sS'margin'
p3549
I50
sS'red'
p3550
I400
ssg31
g32
sg33
(lp3551
sbsS'jobs'
p3552
(i__main__
WordWeight
p3553
(dp3554
g4
(dp3555
S'service-producing'
p3556
I50
sS'number'
p3557
I50
sS'growth'
p3558
I50
sS'institutes'
p3559
I50
sS'total'
p3560
I50
sS'find'
p3561
I100
sS'increased'
p3562
I50
sS'transfer'
p3563
I50
sS'create'
p3564
I100
sS'factory'
p3565
I50
sS'mcallen'
p3566
I50
sS'non-farm'
p3567
I50
sS'boost'
p3568
I50
sS'jobs'
p3569
I2700
sS'gains'
p3570
I50
sS'u.s.'
p3571
I50
sS'payroll'
p3572
I50
sS'goods-producing'
p3573
I50
sS'part'
p3574
I50
sS'manufacturing'
p3575
I100
sS'loss'
p3576
I100
sS'work'
p3577
I50
sS'mln'
p3578
I50
sS'low-paying'
p3579
I50
ssg31
g32
sg33
(lp3580
sbsS'carcass'
p3581
(i__main__
WordWeight
p3582
(dp3583
g4
(dp3584
S'tonnes'
p3585
I100
sS'placing'
p3586
I50
sS'carcass'
p3587
I300
ssg31
g32
sg33
(lp3588
sbsS'corn'
p3589
(i__main__
WordWeight
p3590
(dp3591
g4
(dp3592
S'12,003'
p3593
I50
sS'set'
p3594
I50
sS'chinese'
p3595
I150
sS'september'
p3596
I50
sS'broaden'
p3597
I50
sS'50/50'
p3598
I50
sS'singling-out'
p3599
I50
sS'yellow'
p3600
I300
sS'unjustified'
p3601
I50
sS'sources'
p3602
I100
sS'certs'
p3603
I50
sS'higher'
p3604
I50
sS'drawdown'
p3605
I50
sS'japan'
p3606
I50
sS'speed'
p3607
I50
sS'weekly'
p3608
I50
sS'impact'
p3609
I50
sS'adding'
p3610
I50
sS'anticipation'
p3611
I50
sS'non-traditional'
p3612
I50
sS'gulf'
p3613
I250
sS'eligible'
p3614
I200
sS'front'
p3615
I50
sS'producing'
p3616
I50
sS'usdaprj-g'
p3617
I50
sS'pct'
p3618
I50
sS'acres'
p3619
I800
sS'terminal'
p3620
I50
sS'soybeans'
p3621
I200
sS'production'
p3622
I50
sS'usage'
p3623
I50
sS'argentina'
p3624
I100
sS'rice'
p3625
I200
sS'midwest'
p3626
I100
sS'argentine'
p3627
I250
sS'division'
p3628
I50
sS'exports'
p3629
I50
sS'greater'
p3630
I50
sS'mge'
p3631
I100
sS'starch'
p3632
I100
sS'contracts'
p3633
I50
sS'near-term'
p3634
I50
sS'acreage'
p3635
I50
sS'finding'
p3636
I50
sS'redeem'
p3637
I50
sS'20,717'
p3638
I50
sS'rice,'
p3639
I50
sS'midwestern'
p3640
I50
sS'import'
p3641
I50
sS'report'
p3642
I50
sS'month'
p3643
I50
sS'precipitation'
p3644
I50
sS'domestic'
p3645
I50
sS'high-fructose'
p3646
I50
sS'concerned'
p3647
I100
sS'pounds'
p3648
I50
sS'denmark'
p3649
I50
sS'drop'
p3650
I100
sS'yield'
p3651
I100
sS'large'
p3652
I50
sS'duties'
p3653
I50
sS'processed'
p3654
I50
sS'lose'
p3655
I50
sS'ban'
p3656
I50
sS'including'
p3657
I100
sS'bought'
p3658
I150
sS'meal'
p3659
I50
sS'expanded'
p3660
I50
sS'retender'
p3661
I50
sS'national'
p3662
I300
sS'differentials'
p3663
I50
sS'estimates'
p3664
I200
sS'planted'
p3665
I100
sS'crop'
p3666
I300
sS'reuters'
p3667
I50
sS'officials'
p3668
I50
sS'include'
p3669
I50
sS'thailand'
p3670
I50
sS'year'
p3671
I300
sS'special'
p3672
I50
sS'canada'
p3673
I300
sS'cargo'
p3674
I50
sS'crystalline'
p3675
I50
sS'adds'
p3676
I100
sS'advantageous'
p3677
I50
sS'chicago'
p3678
I100
sS'spokesman'
p3679
I50
sS'cwt'
p3680
I50
sS'legal'
p3681
I50
sS'discrepancies'
p3682
I50
sS'current'
p3683
I100
sS'pressures'
p3684
I50
sS'barley'
p3685
I100
sS'exporting'
p3686
I50
sS'supplies'
p3687
I100
sS'boost'
p3688
I50
sS'u.s.'
p3689
I800
sS'feedgrains'
p3690
I150
sS'payments'
p3691
I50
sS'korea'
p3692
I100
sS'wheat'
p3693
I800
sS'june'
p3694
I100
sS'corn'
p3695
I57900
sS'processing'
p3696
I50
sS'commercial'
p3697
I50
sS'french'
p3698
I200
sS'reported'
p3699
I150
sS'loading'
p3700
I100
sS'china'
p3701
I50
sS'lof'
p3702
I50
sS'15,187'
p3703
I50
sS'strong'
p3704
I50
sS'relying'
p3705
I50
sS'change'
p3706
I50
sS'dlrs'
p3707
I200
sS'river'
p3708
I50
sS'sunflower'
p3709
I50
sS'canadian'
p3710
I400
sS'annual'
p3711
I50
sS'movement'
p3712
I100
sS'reports'
p3713
I200
sS'noted'
p3714
I100
sS'monthly'
p3715
I100
sS'amount'
p3716
I150
sS'analysts'
p3717
I100
sS'act'
p3718
I50
sS'shifting'
p3719
I50
sS'tariffs'
p3720
I50
sS'slightly'
p3721
I50
sS'honor'
p3722
I50
sS'bushel'
p3723
I250
sS'duty'
p3724
I200
sS'major'
p3725
I50
sS'usda'
p3726
I50
sS'heart'
p3727
I100
sS'feel'
p3728
I50
sS'marginal'
p3729
I50
sS'africa'
p3730
I250
sS'number'
p3731
I50
sS'community'
p3732
I50
sS'tons'
p3733
I100
sS'ussr'
p3734
I200
sS'decrease'
p3735
I50
sS'spanish'
p3736
I200
sS'message'
p3737
I50
sS'total'
p3738
I450
sS'1987'
p3739
I50
sS'ontario'
p3740
I150
sS'14,070'
p3741
I50
sS'additional'
p3742
I100
sS'union'
p3743
I150
sS'support'
p3744
I50
sS'33,641'
p3745
I50
sS'stocks'
p3746
I50
sS'soymeal'
p3747
I50
sS'subsidy'
p3748
I50
sS'bases'
p3749
I50
sS'rates'
p3750
I100
sS'subsidized'
p3751
I150
sS'acre'
p3752
I100
sS'white'
p3753
I100
sS'developing'
p3754
I50
sS'today'
p3755
I100
sS'lowest'
p3756
I50
sS'plantings'
p3757
I50
sS'buy'
p3758
I150
sS'interest'
p3759
I100
sS'eastern'
p3760
I50
sS'season'
p3761
I50
sS'offered'
p3762
I100
sS'ascs'
p3763
I50
sS'priced'
p3764
I50
sS'meteorologist'
p3765
I50
sS'hemisphere'
p3766
I50
sS'part'
p3767
I50
sS'competition'
p3768
I50
sS'excellent'
p3769
I50
sS'prices'
p3770
I350
sS'highest'
p3771
I50
sS'yugoslav'
p3772
I250
sS'analyst'
p3773
I100
sS'buying'
p3774
I100
sS'bushels'
p3775
I400
sS'case'
p3776
I100
sS'11,470'
p3777
I50
sS'1986/87'
p3778
I50
sS'oats'
p3779
I50
sS'personnel'
p3780
I50
sS'challenge'
p3781
I50
sS'official'
p3782
I50
sS'cash'
p3783
I50
sS'believes'
p3784
I50
sS'record'
p3785
I100
sS'states'
p3786
I50
sS'farm-level'
p3787
I50
sS'ruling'
p3788
I100
sS'tones'
p3789
I50
sS'advantage'
p3790
I100
sS'acquisition'
p3791
I50
sS'purchases'
p3792
I400
sS'pik'
p3793
I50
sS'calculation'
p3794
I50
sS'imports'
p3795
I200
sS'subsidies'
p3796
I100
sS'sales'
p3797
I200
sS'tonight'
p3798
I50
sS'origin'
p3799
I50
sS'16,760'
p3800
I50
sS'reenter'
p3801
I50
sS'purchased'
p3802
I50
sS'allowed'
p3803
I50
sS'sugar'
p3804
I100
sS'processors'
p3805
I50
sS'april'
p3806
I50
sS'ideas'
p3807
I50
sS'disappearance'
p3808
I50
sS'american'
p3809
I150
sS'exporters'
p3810
I50
sS'points'
p3811
I50
sS'declined'
p3812
I50
sS'department'
p3813
I100
sS'cotton'
p3814
I50
sS'roll'
p3815
I50
sS'european'
p3816
I100
sS'shipments'
p3817
I50
sS'nil'
p3818
I50
sS'early-developed'
p3819
I50
sS'bonus'
p3820
I50
sS'price'
p3821
I300
sS'sets'
p3822
I50
sS'derived'
p3823
I50
sS'paid'
p3824
I50
sS'includes'
p3825
I100
sS'producers'
p3826
I50
sS'hectares'
p3827
I50
sS'sold'
p3828
I50
sS'fructose'
p3829
I250
sS'included'
p3830
I50
sS'hoped'
p3831
I100
sS'payment'
p3832
I50
sS'pull'
p3833
I50
sS'billion'
p3834
I50
sS'bulk'
p3835
I50
sS'pressured'
p3836
I50
sS'johnson'
p3837
I50
sS'average'
p3838
I50
sS'steady'
p3839
I50
sS'sale'
p3840
I50
sS'patterns'
p3841
I50
sS'interior'
p3842
I100
sS'grain-filling'
p3843
I50
sS'african'
p3844
I100
sS'tonnes'
p3845
I3750
sS'soviet'
p3846
I100
sS'talk'
p3847
I50
sS'western'
p3848
I150
ssg31
g32
sg33
(lp3849
sbsS'linseed'
p3850
(i__main__
WordWeight
p3851
(dp3852
g4
(dp3853
S'total'
p3854
I50
sS'linseed'
p3855
I300
sS'sunflower'
p3856
I100
ssg31
g32
sg33
(lp3857
sbsS'grain'
p3858
(i__main__
WordWeight
p3859
(dp3860
g4
(dp3861
S'operations'
p3862
I50
sS'summer'
p3863
I150
sS'concept'
p3864
I50
sS'elevator'
p3865
I50
sS'surplus'
p3866
I50
sS'chinese'
p3867
I50
sS'switched'
p3868
I50
sS'german'
p3869
I100
sS'money'
p3870
I50
sS'move'
p3871
I100
sS'u.k.'
p3872
I100
sS'u.s.-soviet'
p3873
I50
sS'trade'
p3874
I50
sS'held'
p3875
I50
sS'london'
p3876
I200
sS'supplied'
p3877
I50
sS'world'
p3878
I650
sS'years'
p3879
I100
sS'japan'
p3880
I50
sS'boosts'
p3881
I50
sS'weekly'
p3882
I50
sS'impact'
p3883
I50
sS'access'
p3884
I50
sS'cut'
p3885
I150
sS'knowledge'
p3886
I50
sS'harvest'
p3887
I50
sS'regarded'
p3888
I50
sS'pct'
p3889
I150
sS'short'
p3890
I250
sS'increasingly'
p3891
I50
sS'program'
p3892
I50
sS'farmer-owned'
p3893
I100
sS'sussr'
p3894
I300
sS'stable'
p3895
I100
sS'prominently'
p3896
I50
sS'argentina'
p3897
I50
sS'rotterdam'
p3898
I250
sS'city'
p3899
I100
sS'argentine'
p3900
I850
sS'dispute'
p3901
I50
sS'exchanged'
p3902
I50
sS'abundance'
p3903
I50
sS'march'
p3904
I50
sS'increased'
p3905
I50
sS'government'
p3906
I200
sS'rules'
p3907
I50
sS'elders'
p3908
I50
sS'showing'
p3909
I50
sS'largest'
p3910
I250
sS'cheaper'
p3911
I50
sS'interior'
p3912
I100
sS'increases'
p3913
I50
sS'henan'
p3914
I50
sS'notified'
p3915
I50
sS'community'
p3916
I150
sS'relocate'
p3917
I50
sS'weather-damaged'
p3918
I50
sS'month'
p3919
I50
sS'provision'
p3920
I50
sS'sub-grade'
p3921
I50
sS'prominent'
p3922
I50
sS'term'
p3923
I150
sS'increasing'
p3924
I50
sS'proposes'
p3925
I50
sS'crops'
p3926
I50
sS'january'
p3927
I50
sS'efficiency'
p3928
I50
sS'drop'
p3929
I50
sS'wednesday'
p3930
I50
sS'large'
p3931
I50
sS'depressed'
p3932
I50
sS'u.s./soviet'
p3933
I50
sS'payments'
p3934
I50
sS'activity'
p3935
I50
sS'small'
p3936
I50
sS'radio'
p3937
I50
sS'criticism'
p3938
I50
sS'higher'
p3939
I50
sS'noted'
p3940
I50
sS'raises'
p3941
I50
sS'portuguese'
p3942
I150
sS'feedstuff'
p3943
I50
sS'ten'
p3944
I100
sS'people'
p3945
I50
sS'national'
p3946
I350
sS'tonnage'
p3947
I50
sS'breakdown'
p3948
I100
sS'officials'
p3949
I150
sS'infestations'
p3950
I50
sS'begun'
p3951
I50
sS'year'
p3952
I100
sS'proper'
p3953
I50
sS'ecus'
p3954
I50
sS'dlrs'
p3955
I150
sS'agriculture'
p3956
I100
sS'port'
p3957
I50
sS'hit'
p3958
I50
sS'canada'
p3959
I50
sS'groundnutseed'
p3960
I50
sS'iowa'
p3961
I50
sS'near-record'
p3962
I50
sS'federal'
p3963
I150
sS'quality'
p3964
I100
sS'marketed'
p3965
I50
sS'damaged'
p3966
I50
sS'months'
p3967
I50
sS'comments'
p3968
I50
sS'current'
p3969
I50
sS'include'
p3970
I50
sS'state'
p3971
I150
sS'features'
p3972
I50
sS'barley'
p3973
I50
sS'exporting'
p3974
I50
sS'supplier'
p3975
I50
sS'import'
p3976
I200
sS'net'
p3977
I50
sS'contaminated'
p3978
I50
sS'conditions'
p3979
I50
sS'active'
p3980
I100
sS'booking'
p3981
I50
sS'temperatures'
p3982
I50
sS'loose'
p3983
I50
sS'wheat'
p3984
I200
sS'belief'
p3985
I50
sS'exchange'
p3986
I50
sS'reach'
p3987
I50
sS'u.s.'
p3988
I350
sS'attention'
p3989
I150
sS'rely'
p3990
I50
sS'free'
p3991
I50
sS'yesterday'
p3992
I50
sS'reported'
p3993
I100
sS'slow'
p3994
I50
sS'importers'
p3995
I50
sS'york'
p3996
I100
sS'put'
p3997
I50
sS'semi-annual'
p3998
I100
sS'estimate'
p3999
I100
sS'strong'
p4000
I50
sS'cory'
p4001
I50
sS'meyer'
p4002
I50
sS'advance'
p4003
I50
sS'garnac'
p4004
I50
sS'farmland'
p4005
I50
sS'origins'
p4006
I50
sS'canadian'
p4007
I100
sS'involved'
p4008
I50
sS'study'
p4009
I50
sS'annual'
p4010
I150
sS'british'
p4011
I50
sS'times'
p4012
I50
sS'amount'
p4013
I50
sS'grain'
p4014
I64100
sS'cargill'
p4015
I300
sS'long-term'
p4016
I50
sS'china'
p4017
I200
sS'feed'
p4018
I50
sS'major'
p4019
I300
sS'usda'
p4020
I150
sS'bunge'
p4021
I150
sS'supply'
p4022
I50
sS'soybeans'
p4023
I50
sS'private'
p4024
I50
sS'hearing'
p4025
I50
sS'brought'
p4026
I50
sS'production'
p4027
I50
sS'tons'
p4028
I50
sS'ussr'
p4029
I350
sS'self-sufficient'
p4030
I50
sS'relations'
p4031
I50
sS'representations'
p4032
I50
sS'carry'
p4033
I100
sS'total'
p4034
I200
sS'subsidises'
p4035
I50
sS'corp'
p4036
I50
sS'intervention'
p4037
I100
sS'maize'
p4038
I100
sS'fed'
p4039
I50
sS'yuan'
p4040
I50
sS'province'
p4041
I100
sS'decoupling'
p4042
I50
sS'union'
p4043
I100
sS'leading'
p4044
I50
sS'achieve'
p4045
I50
sS'markedly'
p4046
I50
sS'long'
p4047
I450
sS'grow'
p4048
I150
sS'continental'
p4049
I900
sS'commission'
p4050
I100
sS'tonnes'
p4051
I900
sS'rates'
p4052
I50
sS'coarse'
p4053
I1700
sS'ssoviet'
p4054
I100
sS'indiana'
p4055
I100
sS'1986/87'
p4056
I50
sS'markets'
p4057
I150
sS'adm'
p4058
I50
sS'july-september'
p4059
I50
sS'discuss'
p4060
I50
sS'medium'
p4061
I200
sS'offer'
p4062
I50
sS'quantities'
p4063
I50
sS'moscow'
p4064
I50
sS'circulated'
p4065
I50
sS'wisdom'
p4066
I50
sS'released'
p4067
I50
sS'carrying'
p4068
I50
sS'sold'
p4069
I50
sS'yugoslav'
p4070
I50
sS'stocking'
p4071
I50
sS'bushels'
p4072
I100
sS'case'
p4073
I50
sS'jump'
p4074
I50
sS'main'
p4075
I150
sS'target'
p4076
I100
sS'monopoly'
p4077
I50
sS'state-owned'
p4078
I50
sS'representing'
p4079
I50
sS'mln'
p4080
I50
sS'cash'
p4081
I400
sS'worth'
p4082
I50
sS'claim'
p4083
I50
sS'record'
p4084
I50
sS'future'
p4085
I50
sS'reflects'
p4086
I100
sS'country'
p4087
I50
sS'growing'
p4088
I100
sS'making'
p4089
I50
sS'led'
p4090
I50
sS'urging'
p4091
I50
sS'chernobyl'
p4092
I50
sS'tonne'
p4093
I200
sS'promises'
p4094
I50
sS'economics'
p4095
I50
sS'buying'
p4096
I50
sS'portugal'
p4097
I50
sS'official'
p4098
I50
sS'minneapolis'
p4099
I150
sS'duim'
p4100
I50
sS'pushed'
p4101
I50
sS'substantial'
p4102
I50
sS'customer'
p4103
I100
sS'interpreted'
p4104
I50
sS'exclude'
p4105
I50
sS'sells'
p4106
I50
sS'texas'
p4107
I50
sS'technology'
p4108
I50
sS'injurious'
p4109
I50
sS'cotton'
p4110
I50
sS'sell'
p4111
I50
sS'conversion'
p4112
I50
sS'united'
p4113
I100
sS'productivity'
p4114
I50
sS'winter'
p4115
I400
sS'open'
p4116
I50
sS'floor'
p4117
I50
sS'generic'
p4118
I50
sS'seek'
p4119
I50
sS'detail'
p4120
I100
sS'investment'
p4121
I150
sS'setting'
p4122
I50
sS'details'
p4123
I50
sS'lmfe'
p4124
I50
sS'season'
p4125
I50
sS'department'
p4126
I100
sS'products'
p4127
I50
sS'frazier'
p4128
I50
sS'roll'
p4129
I50
sS'european'
p4130
I50
sS'shipments'
p4131
I100
sS'brazil'
p4132
I50
sS'rise'
p4133
I50
sS'temporary'
p4134
I50
sS'volumes'
p4135
I50
sS'monday'
p4136
I50
sS'normal'
p4137
I100
sS'boosted'
p4138
I50
sS'price'
p4139
I100
sS'southern'
p4140
I100
sS'dutch'
p4141
I150
sS'paid'
p4142
I50
sS'romania'
p4143
I50
sS'levels'
p4144
I50
sS'moving'
p4145
I50
sS'exported'
p4146
I50
sS'u.s./ussr'
p4147
I50
sS'remarks'
p4148
I50
sS'president'
p4149
I50
sS'coast'
p4150
I50
sS'payment'
p4151
I50
sS'damage'
p4152
I50
sS'storing'
p4153
I50
sS'purchase'
p4154
I50
sS'land'
p4155
I100
sS'prices'
p4156
I100
sS'unload'
p4157
I50
sS'deng'
p4158
I50
sS'lift'
p4159
I50
sS'farmers'
p4160
I50
sS'cover'
p4161
I50
sS'dent'
p4162
I100
sS'valuing'
p4163
I50
sS'stockpile'
p4164
I100
sS'subsidise'
p4165
I50
sS'richco'
p4166
I50
sS'wheat,'
p4167
I50
sS'claims'
p4168
I50
sS'senior'
p4169
I50
sS'soviet'
p4170
I1200
sS'attacking'
p4171
I50
ssg31
g32
sg33
(lp4172
sbsS'retail'
p4173
(i__main__
WordWeight
p4174
(dp4175
g4
(dp4176
S'sector'
p4177
I100
sS'u.k.'
p4178
I100
sS'year-on-year'
p4179
I50
sS'german'
p4180
I200
sS'adjusted'
p4181
I50
sS'total'
p4182
I50
sS'orders'
p4183
I50
sS'welcomes'
p4184
I50
sS'canada'
p4185
I300
sS'swings'
p4186
I50
sS'feb'
p4187
I50
sS'turkish'
p4188
I100
sS'pct'
p4189
I50
sS'gibbs'
p4190
I50
sS'added'
p4191
I100
sS'march'
p4192
I100
sS'u.s.'
p4193
I200
sS'volume'
p4194
I100
sS'autos'
p4195
I50
sS'gain'
p4196
I50
sS'zealand'
p4197
I50
sS'february'
p4198
I250
sS'quarter'
p4199
I50
sS'actual'
p4200
I100
sS'showed'
p4201
I50
sS'january'
p4202
I100
sS'average'
p4203
I50
sS'basis'
p4204
I100
sS'retail'
p4205
I5600
sS'latest'
p4206
I50
ssg31
g32
sg33
(lp4207
sbsS'feed'
p4208
(i__main__
WordWeight
p4209
(dp4210
g4
(dp4211
S'feed'
p4212
I5600
sS'livestock'
p4213
I100
sS'german'
p4214
I100
sS'imports'
p4215
I150
sS'year'
p4216
I50
sS'competition'
p4217
I50
sS'pig'
p4218
I50
sS'seed'
p4219
I100
sS'cattle'
p4220
I50
sS'protein'
p4221
I50
sS'imported'
p4222
I50
sS'animal'
p4223
I200
sS'dutch'
p4224
I50
sS'usage'
p4225
I150
sS'argentina'
p4226
I50
sS'corn'
p4227
I50
sS'calf'
p4228
I50
sS'head'
p4229
I50
sS'gluten'
p4230
I150
sS'u.s.'
p4231
I100
sS'department'
p4232
I50
sS'compound'
p4233
I400
sS'report'
p4234
I50
sS'meals'
p4235
I50
sS'poultry'
p4236
I200
sS'mln'
p4237
I100
sS'range'
p4238
I50
sS'grain'
p4239
I250
ssg31
g32
sg33
(lp4240
sbsS'copper'
p4241
(i__main__
WordWeight
p4242
(dp4243
g4
(dp4244
S'operations'
p4245
I50
sS'chile'
p4246
I50
sS'gold'
p4247
I50
sS'german'
p4248
I50
sS'consolidated'
p4249
I300
sS'dollar'
p4250
I50
sS'raised'
p4251
I50
sS'mines'
p4252
I50
sS'ended'
p4253
I50
sS'including'
p4254
I50
sS'zinc'
p4255
I100
sS'ounces'
p4256
I50
sS'mill'
p4257
I100
sS'wrought'
p4258
I150
sS'profitable'
p4259
I50
sS'tight'
p4260
I50
sS'contained'
p4261
I50
sS'pct'
p4262
I400
sS'silver'
p4263
I100
sS'offers'
p4264
I50
sS'briggs'
p4265
I50
sS'merged'
p4266
I50
sS'earnings'
p4267
I50
sS'modestly'
p4268
I50
sS'fire-damaged'
p4269
I100
sS'handle'
p4270
I50
sS'increased'
p4271
I50
sS'zambia'
p4272
I50
sS'rise'
p4273
I100
sS'joint'
p4274
I50
sS'cutting'
p4275
I50
sS'world'
p4276
I200
sS'hedge'
p4277
I50
sS'minerals'
p4278
I50
sS'pounds'
p4279
I100
sS'peking'
p4280
I50
sS'higher'
p4281
I50
sS'set'
p4282
I50
sS'cuts'
p4283
I50
sS'january-march'
p4284
I50
sS'elected'
p4285
I50
sS'magma'
p4286
I350
sS'quebec'
p4287
I100
sS'year'
p4288
I200
sS'chilean'
p4289
I150
sS'delivered'
p4290
I50
sS'profitability'
p4291
I50
sS'state'
p4292
I50
sS'assuming'
p4293
I50
sS'drawn'
p4294
I50
sS'wirsbo'
p4295
I50
sS'high-performance'
p4296
I100
sS'missing'
p4297
I150
sS'u.s.'
p4298
I50
sS'possibility'
p4299
I50
sS'standard'
p4300
I100
sS'ranges'
p4301
I50
sS'regional'
p4302
I50
sS'york'
p4303
I50
sS'key'
p4304
I50
sS'picking'
p4305
I50
sS'manufacturer'
p4306
I50
sS'sending'
p4307
I100
sS'cobriza'
p4308
I50
sS'forum'
p4309
I50
sS'lyell'
p4310
I100
sS'country'
p4311
I50
sS'days'
p4312
I50
sS'analysts'
p4313
I50
sS'lowers'
p4314
I500
sS'copper'
p4315
I24900
sS'major'
p4316
I200
sS'supply'
p4317
I50
sS'primary'
p4318
I100
sS'outokumpu'
p4319
I100
sS'tons'
p4320
I200
sS'durham'
p4321
I50
sS'raises'
p4322
I150
sS'refined'
p4323
I200
sS'total'
p4324
I50
sS'establish'
p4325
I50
sS'chino'
p4326
I50
sS'1986'
p4327
I50
sS'conventional'
p4328
I50
sS'basis'
p4329
I50
sS'leading'
p4330
I50
sS'strike'
p4331
I50
sS'electrolytic'
p4332
I300
sS'meeting'
p4333
I50
sS'lowering'
p4334
I150
sS'alloys'
p4335
I50
sS'scaled-down'
p4336
I50
sS'complete'
p4337
I100
sS'dlrs'
p4338
I50
sS'fire'
p4339
I50
sS'share'
p4340
I50
sS'sales'
p4341
I50
sS'volume'
p4342
I50
sS'disruption'
p4343
I50
sS'full-plate'
p4344
I100
sS'producing'
p4345
I50
sS'raising'
p4346
I100
sS'valley'
p4347
I50
sS'noranda'
p4348
I300
sS'developing'
p4349
I50
sS'state-owned'
p4350
I100
sS'grammes'
p4351
I50
sS'arrangements'
p4352
I50
sS'transparency'
p4353
I50
sS'called'
p4354
I50
sS'centromin'
p4355
I50
sS'lbs'
p4356
I100
sS'philippine'
p4357
I100
sS'zambian'
p4358
I250
sS'biggest'
p4359
I50
sS'refinery'
p4360
I100
sS'reserves'
p4361
I50
sS'monopolises'
p4362
I50
sS'council'
p4363
I50
sS'hit'
p4364
I50
sS'ship'
p4365
I50
sS'confirms'
p4366
I50
sS'mint'
p4367
I50
sS'swedish'
p4368
I50
sS'b.c.'
p4369
I50
sS'studying'
p4370
I50
sS'stake'
p4371
I50
sS'damage'
p4372
I50
sS'<nor>'
p4373
I50
sS'build'
p4374
I100
sS'largest'
p4375
I250
sS'comex'
p4376
I50
sS'week'
p4377
I50
sS'added'
p4378
I50
sS'price'
p4379
I100
sS'produce'
p4380
I100
sS'restructures'
p4381
I50
sS'cycle'
p4382
I100
sS'don'
p4383
I50
sS'beijing-santiago'
p4384
I50
sS'average'
p4385
I50
sS'stronger'
p4386
I50
sS'fundamentals'
p4387
I100
sS'sbending'
p4388
I50
sS'time'
p4389
I50
sS'tonnes'
p4390
I200
ssg31
g32
sg33
(lp4391
sbsS'supply'
p4392
(i__main__
WordWeight
p4393
(dp4394
g4
(dp4395
S'money'
p4396
I9550
sS'cds'
p4397
I50
sS'pressing'
p4398
I50
sS'market'
p4399
I50
sS'supply'
p4400
I19400
ssg31
g32
sg33
(lp4401
sbsS'strategic'
p4402
(i__main__
WordWeight
p4403
(dp4404
g4
(dp4405
S'sell'
p4406
I100
sS'add'
p4407
I50
sS'jeopardize'
p4408
I100
sS'worth'
p4409
I100
sS'strategic'
p4410
I700
ssg31
g32
sg33
(lp4411
sbsS'cocoa'
p4412
(i__main__
WordWeight
p4413
(dp4414
g4
(dp4415
S'surplus'
p4416
I200
sS'german'
p4417
I150
sS'existing'
p4418
I50
sS'assigned'
p4419
I50
sS'grades'
p4420
I100
sS'london'
p4421
I250
sS'asian'
p4422
I150
sS'years'
p4423
I50
sS'follow'
p4424
I50
sS'agrees'
p4425
I50
sS'welcomes'
p4426
I50
sS'impact'
p4427
I50
sS'traders'
p4428
I50
sS'group'
p4429
I50
sS'chosen'
p4430
I50
sS'temporao'
p4431
I150
sS'organisation'
p4432
I50
sS'insufficient'
p4433
I50
sS'sugar'
p4434
I250
sS'production'
p4435
I50
sS'combine'
p4436
I50
sS'png'
p4437
I100
sS'tea,'
p4438
I50
sS'weeks'
p4439
I50
sS'main'
p4440
I100
sS'local'
p4441
I50
sS'ghana'
p4442
I450
sS'indonesian'
p4443
I100
sS'combination'
p4444
I50
sS'rules'
p4445
I50
sS'coast'
p4446
I150
sS'lce'
p4447
I50
sS'trade'
p4448
I50
sS'world'
p4449
I700
sS'safeguards'
p4450
I50
sS'january'
p4451
I50
sS'differential'
p4452
I50
sS'malaysian'
p4453
I350
sS'remove'
p4454
I50
sS'registrations'
p4455
I50
sS'communications'
p4456
I50
sS'benefit'
p4457
I50
sS'delegate'
p4458
I50
sS'famine,'
p4459
I50
sS'dealers'
p4460
I50
sS'noted'
p4461
I50
sS'bahia'
p4462
I100
sS'sterling'
p4463
I50
sS'set'
p4464
I50
sS'throwing'
p4465
I50
sS'tea'
p4466
I50
sS'differentials'
p4467
I50
sS'crop'
p4468
I150
sS'malaysia'
p4469
I100
sS'nonmember'
p4470
I50
sS'cost'
p4471
I50
sS'year'
p4472
I50
sS'brazil'
p4473
I50
sS'depress'
p4474
I50
sS'consumers'
p4475
I50
sS'icco'
p4476
I50
sS'representatives'
p4477
I50
sS'current'
p4478
I50
sS'shipment'
p4479
I50
sS'dutch'
p4480
I200
sS'international'
p4481
I2950
sS'previous'
p4482
I100
sS'boost'
p4483
I50
sS'accord'
p4484
I50
sS'friday'
p4485
I100
sS'agreement'
p4486
I100
sS'ranges'
p4487
I50
sS'unwanted'
p4488
I50
sS'york'
p4489
I100
sS'hand'
p4490
I50
sS'quarter'
p4491
I50
sS'limits'
p4492
I50
sS'develops'
p4493
I50
sS'april'
p4494
I50
sS'range'
p4495
I50
sS'high-quality'
p4496
I50
sS'nearby'
p4497
I50
sS'origin'
p4498
I50
sS'major'
p4499
I150
sS'presence'
p4500
I50
sS'successive'
p4501
I50
sS'cocoa'
p4502
I37150
sS'quality'
p4503
I150
sS'market'
p4504
I100
sS'decline'
p4505
I50
sS'madagascar'
p4506
I100
sS'statistics'
p4507
I50
sS'leading'
p4508
I200
sS'question'
p4509
I50
sS'offers'
p4510
I100
sS'brazilian'
p4511
I150
sS'survive'
p4512
I50
sS'proposal'
p4513
I50
sS'type'
p4514
I50
sS'withholding'
p4515
I50
sS'selling'
p4516
I150
sS'funds'
p4517
I50
sS'delayed'
p4518
I50
sS'hoped'
p4519
I50
sS'part'
p4520
I50
sS'non-member'
p4521
I950
sS'doubts'
p4522
I50
sS'prices'
p4523
I50
sS'buying'
p4524
I200
sS'ghanaian'
p4525
I50
sS'expanding'
p4526
I50
sS'stg'
p4527
I50
sS'join'
p4528
I50
sS'origins'
p4529
I50
sS'cheapest'
p4530
I50
sS'meeting'
p4531
I100
sS'agree'
p4532
I50
sS'supply'
p4533
I50
sS'tonne'
p4534
I50
sS'developing'
p4535
I50
sS'imports'
p4536
I100
sS'coffee'
p4537
I150
sS'buy'
p4538
I400
sS'n.y.'
p4539
I50
sS'physical'
p4540
I50
sS'sell'
p4541
I200
sS'interferes'
p4542
I50
sS'amount'
p4543
I50
sS'member'
p4544
I200
sS'largest'
p4545
I150
sS'stock'
p4546
I100
sS'week'
p4547
I50
sS'levy'
p4548
I50
sS'plans'
p4549
I50
sS'price'
p4550
I50
sS'forecasts'
p4551
I50
sS'chance'
p4552
I50
sS'plan'
p4553
I50
sS'position'
p4554
I50
sS'device'
p4555
I50
sS'president'
p4556
I50
sS'priced'
p4557
I50
sS'types'
p4558
I100
sS'exports'
p4559
I50
sS'varieties'
p4560
I50
sS'coffee,'
p4561
I50
sS'w.german'
p4562
I50
sS'icch'
p4563
I50
sS'premiums'
p4564
I50
sS'deposit'
p4565
I50
sS'african'
p4566
I50
sS'tonnes'
p4567
I1000
sS'operate'
p4568
I50
sS'berisford'
p4569
I50
ssg31
g32
sg33
(lp4570
sbsS'soybean'
p4571
(i__main__
WordWeight
p4572
(dp4573
g4
(dp4574
S'reductions'
p4575
I50
sS'domestic'
p4576
I100
sS'projected'
p4577
I100
sS'sources'
p4578
I50
sS'including'
p4579
I50
sS'sown'
p4580
I50
sS'committee'
p4581
I50
sS'taiwan'
p4582
I350
sS'supporter'
p4583
I50
sS'weekly'
p4584
I200
sS'current'
p4585
I250
sS'fit'
p4586
I50
sS'usdaprj-g'
p4587
I50
sS'program'
p4588
I50
sS'brazil/argentine'
p4589
I50
sS'covered'
p4590
I50
sS'argentina'
p4591
I50
sS'midwest'
p4592
I50
sS'oct'
p4593
I50
sS'argentine'
p4594
I50
sS'exports'
p4595
I100
sS'march'
p4596
I50
sS'maize,'
p4597
I50
sS'government'
p4598
I100
sS'rise'
p4599
I100
sS'snuffing'
p4600
I50
sS'self-sufficiency'
p4601
I50
sS'dart'
p4602
I50
sS'competing'
p4603
I50
sS'trade'
p4604
I50
sS'world'
p4605
I100
sS'month'
p4606
I150
sS'areas'
p4607
I50
sS'entire'
p4608
I50
sS'boost'
p4609
I50
sS'yield'
p4610
I50
sS'noted'
p4611
I50
sS'leave'
p4612
I100
sS'traders'
p4613
I50
sS'nspa'
p4614
I100
sS'activity'
p4615
I50
sS'output'
p4616
I50
sS'quarter'
p4617
I50
sS'heading'
p4618
I50
sS'week'
p4619
I50
sS'national'
p4620
I350
sS'japanese'
p4621
I50
sS'crop'
p4622
I100
sS'oil'
p4623
I50
sS'year'
p4624
I300
sS'brazil'
p4625
I250
sS'established'
p4626
I50
sS'nil'
p4627
I150
sS'chicago'
p4628
I50
sS'ways'
p4629
I50
sS'ringgit'
p4630
I50
sS'decision'
p4631
I100
sS'representatives'
p4632
I50
sS'forecast'
p4633
I100
sS'increase'
p4634
I150
sS'falling'
p4635
I50
sS'parana'
p4636
I50
sS'supports'
p4637
I50
sS'u.s.'
p4638
I250
sS'contrast'
p4639
I50
sS'shows'
p4640
I50
sS'supporting'
p4641
I50
sS'wheat'
p4642
I250
sS'curbs'
p4643
I50
sS'maize'
p4644
I100
sS'corn'
p4645
I400
sS'expansion'
p4646
I50
sS'asa'
p4647
I50
sS'china'
p4648
I100
sS'groups'
p4649
I50
sS'making'
p4650
I100
sS'put'
p4651
I50
sS'planted'
p4652
I50
sS'protect'
p4653
I50
sS'fringe'
p4654
I50
sS'foreign'
p4655
I100
sS'april'
p4656
I50
sS'rapeseed,'
p4657
I50
sS'grain'
p4658
I50
sS'analysts'
p4659
I50
sS'sept'
p4660
I50
sS'bushel'
p4661
I50
sS'major'
p4662
I50
sS'protests'
p4663
I50
sS'usda'
p4664
I100
sS'supply'
p4665
I50
sS'soybeans'
p4666
I50
sS'loan'
p4667
I50
sS'period'
p4668
I50
sS'hearing'
p4669
I50
sS'brought'
p4670
I50
sS'soybean'
p4671
I27650
sS'total'
p4672
I200
sS'market'
p4673
I50
sS'destinations'
p4674
I50
sS'decline'
p4675
I100
sS'addition'
p4676
I50
sS'leading'
p4677
I50
sS'support'
p4678
I100
sS'selloff'
p4679
I50
sS'due'
p4680
I50
sS'long'
p4681
I50
sS'production'
p4682
I50
sS'brazilian'
p4683
I150
sS'meeting'
p4684
I50
sS'empty'
p4685
I50
sS'offering'
p4686
I50
sS'season'
p4687
I150
sS'meal'
p4688
I50
sS'hemisphere'
p4689
I50
sS'authority'
p4690
I100
sS'cautioned'
p4691
I50
sS'specialists'
p4692
I50
sS'harvest'
p4693
I50
sS'analyst'
p4694
I100
sS'bushels'
p4695
I100
sS'december'
p4696
I50
sS'target'
p4697
I50
sS'showed'
p4698
I50
sS'simsa'
p4699
I50
sS'limiting'
p4700
I50
sS'groundnutseed'
p4701
I50
sS'harvested'
p4702
I50
sS'limit'
p4703
I50
sS'aid'
p4704
I50
sS'problem'
p4705
I50
sS'sorghum'
p4706
I150
sS'addressing'
p4707
I50
sS'months'
p4708
I50
sS'backing'
p4709
I50
sS'imports'
p4710
I150
sS'indonesian'
p4711
I50
sS'pushed'
p4712
I50
sS'feasible'
p4713
I50
sS'italy'
p4714
I50
sS'breaking'
p4715
I50
sS'administration'
p4716
I50
sS'american'
p4717
I1050
sS'member'
p4718
I100
sS'income'
p4719
I50
sS'department'
p4720
I50
sS'higher'
p4721
I50
sS'breakdown'
p4722
I50
sS'corn,'
p4723
I50
sS'intended'
p4724
I50
sS'congress'
p4725
I100
sS'normal'
p4726
I50
sS'spot'
p4727
I50
sS'yesterday'
p4728
I50
sS'producers'
p4729
I50
sS'purpose'
p4730
I50
sS'included'
p4731
I50
sS'law'
p4732
I50
sS'haggard'
p4733
I50
sS'billion'
p4734
I50
sS'dealers'
p4735
I100
sS'considered'
p4736
I50
sS'disease'
p4737
I50
sS'time'
p4738
I50
sS'tonnes'
p4739
I100
sS'ccc'
p4740
I50
ssg31
g32
sg33
(lp4741
sbsS'soy'
p4742
(i__main__
WordWeight
p4743
(dp4744
g4
(dp4745
S'soy'
p4746
I500
sS'soybeans'
p4747
I100
sS'warns'
p4748
I50
sS'bushels'
p4749
I100
ssg31
g32
sg33
(lp4750
sbsS'inventories'
p4751
(i__main__
WordWeight
p4752
(dp4753
g4
(dp4754
S'rebuilding'
p4755
I50
sS'goods'
p4756
I50
sS'business'
p4757
I150
sS'manufacturers'
p4758
I50
sS'december'
p4759
I50
sS'wholesalers'
p4760
I50
sS'producers'
p4761
I150
sS'nondurables'
p4762
I50
sS'january'
p4763
I50
sS'department'
p4764
I50
sS'july'
p4765
I50
sS'inventories'
p4766
I1500
ssg31
g32
sg33
(lp4767
sbsS'platinum'
p4768
(i__main__
WordWeight
p4769
(dp4770
g4
(dp4771
S'gold'
p4772
I100
sS'issued'
p4773
I50
sS'move'
p4774
I50
sS'<technigen'
p4775
I50
sS'nicel'
p4776
I100
sS"matthey's"
p4777
I50
sS'tender'
p4778
I50
sS'platinum'
p4779
I3800
sS'clark'
p4780
I50
sS'uranium'
p4781
I50
sS'application'
p4782
I50
sS'production'
p4783
I50
sS'interest'
p4784
I100
sS'largest'
p4785
I50
sS'international'
p4786
I200
sS'rustenburg'
p4787
I50
sS'price'
p4788
I50
sS'number'
p4789
I50
sS'demand'
p4790
I50
sS'world'
p4791
I50
sS'technigen'
p4792
I150
sS'silver'
p4793
I50
sS'dlrs'
p4794
I50
sS'processes'
p4795
I50
sS'parentheses'
p4796
I50
sS'american'
p4797
I50
sS'ounce'
p4798
I100
sS'silver,'
p4799
I50
sS'impala'
p4800
I50
ssg31
g32
sg33
(lp4801
sbsS'jet'
p4802
(i__main__
WordWeight
p4803
(dp4804
g4
(dp4805
S'barrels'
p4806
I50
sS'jet'
p4807
I700
sS'contract'
p4808
I100
sS'naphtha'
p4809
I50
sS'gallon'
p4810
I50
sS'bringing'
p4811
I50
sS'raising'
p4812
I50
ssg31
g32
sg33
(lp4813
sbsS'housing'
p4814
(i__main__
WordWeight
p4815
(dp4816
g4
(dp4817
S'september'
p4818
I50
sS'growth'
p4819
I100
sS'quebec'
p4820
I100
sS'japan'
p4821
I100
sS'adjustment'
p4822
I50
sS'passes'
p4823
I50
sS'strength'
p4824
I50
sS'feb'
p4825
I50
sS'mortgage'
p4826
I50
sS'bottom'
p4827
I50
sS'federal'
p4828
I100
sS'housing'
p4829
I4900
sS'single-family'
p4830
I100
sS'program'
p4831
I50
sS'rates'
p4832
I50
sS'income'
p4833
I50
sS'department'
p4834
I100
sS'higher'
p4835
I50
sS'august'
p4836
I150
sS'u.s.'
p4837
I400
sS'corp'
p4838
I50
sS'strong'
p4839
I50
sS'february'
p4840
I100
sS'january'
p4841
I100
sS'april'
p4842
I50
sS'underlying'
p4843
I50
sS'rural'
p4844
I50
sS'economy'
p4845
I50
sS'sept'
p4846
I50
sS'noted'
p4847
I50
ssg31
g32
sg33
(lp4848
sbsS'groundnut'
p4849
(i__main__
WordWeight
p4850
(dp4851
g4
(dp4852
S'groundnut'
p4853
I500
sS'good'
p4854
I50
sS'oil'
p4855
I100
sS'hit'
p4856
I50
sS'edible'
p4857
I50
ssg31
g32
sg33
(lp4858
sbsS'interest'
p4859
(i__main__
WordWeight
p4860
(dp4861
g4
(dp4862
S'set'
p4863
I50
sS'yen'
p4864
I200
sS'german'
p4865
I450
sS'money'
p4866
I50
sS'broaden'
p4867
I50
sS'global'
p4868
I100
sS'domestic'
p4869
I300
sS'expects'
p4870
I50
sS'month'
p4871
I50
sS'bring'
p4872
I50
sS'cuts'
p4873
I100
sS'austrian'
p4874
I50
sS'bank'
p4875
I100
sS'coordination'
p4876
I100
sS'move'
p4877
I100
sS'current'
p4878
I50
sS'cut'
p4879
I800
sS'overhaul'
p4880
I50
sS'trigger'
p4881
I50
sS'ease'
p4882
I50
sS'relief'
p4883
I50
sS'attractive'
p4884
I50
sS'pct'
p4885
I350
sS'welcomed'
p4886
I50
sS'concessional'
p4887
I100
sS'swap'
p4888
I50
sS'excluded'
p4889
I50
sS'stable'
p4890
I50
sS'policy'
p4891
I200
sS'coordinated'
p4892
I50
sS'hope'
p4893
I50
sS'real'
p4894
I350
sS'good'
p4895
I50
sS'risk'
p4896
I50
sS'watching'
p4897
I50
sS'refinance'
p4898
I50
sS'rise'
p4899
I450
sS'posed'
p4900
I50
sS'term'
p4901
I100
sS'bear'
p4902
I50
sS'nation'
p4903
I50
sS'downtrend'
p4904
I50
sS'cutting'
p4905
I50
sS'experimenting'
p4906
I50
sS'fall'
p4907
I250
sS'world'
p4908
I50
sS'investor'
p4909
I50
sS'falling'
p4910
I50
sS'developments'
p4911
I100
sS'room'
p4912
I50
sS'prime'
p4913
I150
sS'february'
p4914
I50
sS'stabilize'
p4915
I50
sS'countries'
p4916
I100
sS'january'
p4917
I100
sS'drop'
p4918
I50
sS'leave'
p4919
I200
sS'lawson'
p4920
I50
sS'opening'
p4921
I50
sS'common'
p4922
I50
sS'forces'
p4923
I50
sS'advised'
p4924
I50
sS'fixed'
p4925
I100
sS'commented'
p4926
I50
sS'rested'
p4927
I50
sS'expansionary'
p4928
I50
sS'pleas'
p4929
I50
sS'week'
p4930
I50
sS'differential'
p4931
I50
sS'england'
p4932
I50
sS'suspended'
p4933
I50
sS'declines'
p4934
I100
sS'shake'
p4935
I50
sS'reduce'
p4936
I100
sS'relative'
p4937
I100
sS'carry'
p4938
I50
sS'european'
p4939
I50
sS'year'
p4940
I50
sS'tender'
p4941
I50
sS'thinks'
p4942
I50
sS'short-term'
p4943
I550
sS'established'
p4944
I50
sS'decree'
p4945
I50
sS'mortgage'
p4946
I150
sS'restricted'
p4947
I50
sS'highest'
p4948
I50
sS'exchange'
p4949
I50
sS'forecast'
p4950
I50
sS'increase'
p4951
I100
sS'nominal'
p4952
I100
sS'deficit'
p4953
I50
sS'cooperation'
p4954
I50
sS'dutch'
p4955
I50
sS'international'
p4956
I150
sS'justified'
p4957
I50
sS'increasing'
p4958
I50
sS'public'
p4959
I50
sS'impact'
p4960
I50
sS'missing'
p4961
I50
sS'u.s.'
p4962
I50
sS'agreement'
p4963
I50
sS'refused'
p4964
I100
sS'pressure'
p4965
I400
sS'job'
p4966
I50
sS'volcker'
p4967
I50
sS'viewpoints'
p4968
I50
sS'key'
p4969
I50
sS'maximium'
p4970
I50
sS'strong'
p4971
I50
sS'loans'
p4972
I50
sS'card'
p4973
I400
sS'widening'
p4974
I50
sS'end-june'
p4975
I50
sS'determining'
p4976
I50
sS'hinting'
p4977
I50
sS'losses'
p4978
I50
sS'moment'
p4979
I50
sS'british'
p4980
I50
sS'foreign'
p4981
I50
sS'april'
p4982
I250
sS'levels'
p4983
I100
sS'long-term'
p4984
I50
sS'corp'
p4985
I50
sS'retail'
p4986
I50
sS'concerned'
p4987
I50
sS'poundsand'
p4988
I50
sS'trim'
p4989
I50
sS'u.k.'
p4990
I50
sS'suspend'
p4991
I50
sS'recognise'
p4992
I50
sS'point'
p4993
I100
sS'simple'
p4994
I50
sS'noting'
p4995
I50
sS'boosting'
p4996
I50
sS'poehl'
p4997
I50
sS'reflects'
p4998
I100
sS'rising'
p4999
I50
sS'raises'
p5000
I50
sS'determine'
p5001
I50
sS'wider'
p5002
I50
sS'force'
p5003
I50
sS'market'
p5004
I350
sS'intervention'
p5005
I50
sS'guide'
p5006
I50
sS'decline'
p5007
I250
sS'fed'
p5008
I50
sS'wanted'
p5009
I100
sS'raise'
p5010
I200
sS'leading'
p5011
I300
sS'creativity'
p5012
I50
sS'tenders'
p5013
I50
sS'dropping'
p5014
I50
sS'rates'
p5015
I400
sS'stock'
p5016
I50
sS'interest'
p5017
I46200
sS'house'
p5018
I50
sS'timetable'
p5019
I50
sS'markets'
p5020
I50
sS'pre-budget'
p5021
I50
sS'today'
p5022
I100
sS'happy'
p5023
I50
sS'firm'
p5024
I100
sS'lowering'
p5025
I300
sS'direction'
p5026
I150
sS'selling'
p5027
I50
sS'mixture'
p5028
I50
sS'form'
p5029
I50
sS'funds'
p5030
I50
sS'offered'
p5031
I50
sS'spike'
p5032
I50
sS'cooperate'
p5033
I50
sS'change'
p5034
I50
sS'quarterly'
p5035
I50
sS'part'
p5036
I100
sS'link'
p5037
I50
sS'suspension'
p5038
I50
sS'hopes'
p5039
I100
sS'cases'
p5040
I50
sS'promote'
p5041
I150
sS'interbank'
p5042
I100
sS'raising'
p5043
I300
sS'assets'
p5044
I50
sS'paying'
p5045
I50
sS'helped'
p5046
I50
sS'calls'
p5047
I50
sS'glory'
p5048
I50
sS'pushed'
p5049
I50
sS'official'
p5050
I100
sS'mln'
p5051
I50
sS'board'
p5052
I50
sS'riyal'
p5053
I50
sS'matter'
p5054
I50
sS'limit'
p5055
I50
sS'risks'
p5056
I50
sS'fluctuations'
p5057
I50
sS'baker'
p5058
I50
sS'expect'
p5059
I100
sS'supply'
p5060
I50
sS'annual'
p5061
I50
sS'successfully'
p5062
I50
sS'pushes'
p5063
I50
sS'borrowing'
p5064
I50
sS'sales'
p5065
I50
sS'accept'
p5066
I50
sS'yielding'
p5067
I50
sS'high'
p5068
I250
sS'currency'
p5069
I250
sS'minimum'
p5070
I50
sS'held'
p5071
I50
sS'reports'
p5072
I50
sS'bundesbank'
p5073
I200
sS'sees'
p5074
I50
sS'action'
p5075
I50
sS'visa'
p5076
I50
sS'increased'
p5077
I100
sS'forced'
p5078
I50
sS'maturities'
p5079
I50
sS'monitoring'
p5080
I50
sS'amounts'
p5081
I50
sS'imminent'
p5082
I50
sS'divided'
p5083
I50
sS'generally'
p5084
I50
sS'intends'
p5085
I50
sS'lift'
p5086
I50
sS'holding'
p5087
I50
sS'department'
p5088
I50
sS'outlook'
p5089
I100
sS'contractual'
p5090
I50
sS'overseas'
p5091
I50
sS'higher'
p5092
I450
sS'sterling'
p5093
I50
sS'product'
p5094
I50
sS'pontiac'
p5095
I50
sS'ceilings'
p5096
I100
sS'nudging'
p5097
I50
sS'tied'
p5098
I50
sS'push'
p5099
I50
sS'chance'
p5100
I50
sS'involving'
p5101
I50
sS'plan'
p5102
I50
sS'debt'
p5103
I50
sS'cap'
p5104
I50
sS'reason'
p5105
I100
sS'response'
p5106
I50
sS'exposure'
p5107
I50
sS'early'
p5108
I50
sS'argue'
p5109
I50
sS'lead'
p5110
I50
sS'effective'
p5111
I100
sS'average'
p5112
I100
sS'implications'
p5113
I50
sS'bankers'
p5114
I50
sS'sonntag'
p5115
I50
sS'thought'
p5116
I50
sS'dinar'
p5117
I100
sS'inflation'
p5118
I100
sS'deposit'
p5119
I100
sS'pay'
p5120
I50
sS'banks'
p5121
I100
sS'weigh'
p5122
I50
sS'subsequently'
p5123
I50
sS'order'
p5124
I50
sS'ccc'
p5125
I150
ssg31
g32
sg33
(lp5126
sbsS'fishmeal'
p5127
(i__main__
WordWeight
p5128
(dp5129
g4
(dp5130
S'gross'
p5131
I50
sS'german'
p5132
I50
sS'fishmeal'
p5133
I600
sS'pct'
p5134
I50
sS'hamburg'
p5135
I100
sS'tonnes'
p5136
I50
ssg31
g32
sg33
(lp5137
sbsS'rand'
p5138
(i__main__
WordWeight
p5139
(dp5140
g4
(dp5141
S'rand'
p5142
I1600
sS'commercial'
p5143
I150
sS'financial'
p5144
I600
sS'form'
p5145
I50
ssg31
g32
sg33
(lp5146
sbsS'nickel'
p5147
(i__main__
WordWeight
p5148
(dp5149
g4
(dp5150
S'ontario'
p5151
I50
sS'aluminium'
p5152
I100
sS'cut'
p5153
I100
sS'nickel'
p5154
I2700
sS'monthly'
p5155
I50
sS'lbs'
p5156
I50
sS'philippines'
p5157
I50
sS'quarterly'
p5158
I50
sS'weaker'
p5159
I50
sS'days'
p5160
I50
sS'pct'
p5161
I100
sS'shearson'
p5162
I50
sS'ailing'
p5163
I50
sS'offers'
p5164
I50
sS'raises'
p5165
I50
sS'tonnes'
p5166
I100
sS'prices'
p5167
I50
sS'close'
p5168
I100
sS'soviet'
p5169
I50
sS'japan'
p5170
I50
sS'market'
p5171
I50
ssg31
g32
sg33
(lp5172
sbsS'gas'
p5173
(i__main__
WordWeight
p5174
(dp5175
g4
(dp5176
S'sector'
p5177
I50
sS'surplus'
p5178
I50
sS'freeing'
p5179
I50
sS'german'
p5180
I50
sS'consolidated'
p5181
I50
sS'agreed'
p5182
I50
sS'existing'
p5183
I50
sS'sources'
p5184
I50
sS'down,'
p5185
I50
sS'pty'
p5186
I50
sS'committed'
p5187
I50
sS'converting'
p5188
I50
sS'sulphur'
p5189
I50
sS'restructure'
p5190
I50
sS'cut'
p5191
I50
sS'referring'
p5192
I50
sS'supply'
p5193
I50
sS'pct'
p5194
I250
sS'wright'
p5195
I50
sS'bottled'
p5196
I150
sS'poplarville'
p5197
I50
sS'persist'
p5198
I50
sS'darwin'
p5199
I50
sS'spot'
p5200
I350
sS'easier'
p5201
I50
sS'texas'
p5202
I150
sS'customers'
p5203
I50
sS'boxleigh'
p5204
I50
sS'sitting'
p5205
I50
sS'largest'
p5206
I150
sS'number'
p5207
I50
sS'early'
p5208
I50
sS'drilling'
p5209
I50
sS'report'
p5210
I50
sS'day'
p5211
I50
sS'perceived'
p5212
I50
sS'resource'
p5213
I50
sS'transmission'
p5214
I50
sS'reduces'
p5215
I50
sS'hawaii'
p5216
I50
sS'settle'
p5217
I50
sS'three-year'
p5218
I50
sS'methane'
p5219
I50
sS'barrels'
p5220
I50
sS'marketshare'
p5221
I50
sS'paso'
p5222
I50
sS'metres'
p5223
I50
sS'democrat'
p5224
I50
sS'cost'
p5225
I50
sS'year'
p5226
I50
sS'transport'
p5227
I150
sS'canada'
p5228
I50
sS'perry'
p5229
I50
sS'leaded'
p5230
I50
sS'label'
p5231
I50
sS'access'
p5232
I50
sS'transcontinental'
p5233
I100
sS'arkansas'
p5234
I50
sS'flowed'
p5235
I50
sS'flowing'
p5236
I50
sS'supplies'
p5237
I50
sS'net'
p5238
I50
sS'tenneco'
p5239
I50
sS'bought'
p5240
I50
sS'problems'
p5241
I50
sS'u.s.'
p5242
I50
sS'pan-alberta/united'
p5243
I50
sS'pressure'
p5244
I50
sS'restructuring'
p5245
I50
sS'spare'
p5246
I50
sS'paid'
p5247
I50
sS'thailand'
p5248
I100
sS'atoka'
p5249
I50
sS'search'
p5250
I50
sS'canadian'
p5251
I400
sS'country'
p5252
I50
sS'liquified'
p5253
I50
sS'contract'
p5254
I50
sS'american'
p5255
I200
sS'algonquin'
p5256
I50
sS'analysts'
p5257
I50
sS'faces'
p5258
I50
sS'york'
p5259
I50
sS'transamerican'
p5260
I50
sS'distillate,'
p5261
I50
sS'facility'
p5262
I50
sS'previously'
p5263
I50
sS'betting'
p5264
I50
sS'encouraging'
p5265
I50
sS'feet'
p5266
I800
sS'tennessee'
p5267
I150
sS'carry'
p5268
I50
sS'unleaded'
p5269
I50
sS'total'
p5270
I50
sS'unit'
p5271
I50
sS'utility'
p5272
I50
sS'decline'
p5273
I50
sS'market'
p5274
I50
sS'additional'
p5275
I100
sS'source'
p5276
I50
sS'union'
p5277
I200
sS'petroleum'
p5278
I200
sS'system'
p5279
I50
sS'peninsular'
p5280
I50
sS'lo-vaca'
p5281
I50
sS'interest'
p5282
I50
sS'basin'
p5283
I50
sS'systems'
p5284
I50
sS'buy'
p5285
I50
sS'pan-alberta'
p5286
I100
sS'shortages'
p5287
I50
sS'successful'
p5288
I50
sS'mcf'
p5289
I50
sS'kerosene'
p5290
I50
sS'gas'
p5291
I51500
sS'pipeline'
p5292
I50
sS'tested'
p5293
I50
sS'construction'
p5294
I50
sS'western'
p5295
I50
sS'demand'
p5296
I50
sS'prices'
p5297
I50
sS'thai'
p5298
I50
sS'cuts'
p5299
I50
sS'australian'
p5300
I50
sS'paying'
p5301
I100
sS'transco'
p5302
I50
sS'oil,'
p5303
I150
sS'double'
p5304
I50
sS'mln'
p5305
I50
sS'worth'
p5306
I50
sS'bcf'
p5307
I50
sS'risks'
p5308
I50
sS'high-cost'
p5309
I100
sS'average'
p5310
I50
sS'months'
p5311
I50
sS'proved'
p5312
I50
sS'cents'
p5313
I50
sS'imports'
p5314
I50
sS'purchased'
p5315
I50
sS'united'
p5316
I100
sS'amount'
p5317
I50
sS'field'
p5318
I50
sS'<txp>'
p5319
I50
sS'build'
p5320
I50
sS'quantities'
p5321
I50
sS'trunkline'
p5322
I100
sS'corwith'
p5323
I50
sS'worldwide'
p5324
I50
sS'exhaust'
p5325
I50
sS'tighten'
p5326
I50
sS'oil'
p5327
I4650
sS'columbia'
p5328
I300
sS'price'
p5329
I100
sS'kansas'
p5330
I50
sS'diminishing'
p5331
I50
sS'wells'
p5332
I50
sS'includes'
p5333
I100
sS'producers'
p5334
I50
sS'norwegian'
p5335
I50
sS'moving'
p5336
I50
sS'improving'
p5337
I50
sS'coast'
p5338
I50
sS'broussard'
p5339
I50
sS'billion'
p5340
I50
sS'realized'
p5341
I50
sS'natural'
p5342
I9100
sS'nance'
p5343
I50
sS'coal'
p5344
I100
sS'switch'
p5345
I50
sS'take-or-pay'
p5346
I50
sS'profits'
p5347
I50
sS'recoverable'
p5348
I50
ssg31
g32
sg33
(lp5349
sbsS'fuel'
p5350
(i__main__
WordWeight
p5351
(dp5352
g4
(dp5353
S'heavy'
p5354
I550
sS'egypt'
p5355
I50
sS'domestic'
p5356
I100
sS'number'
p5357
I150
sS'metres'
p5358
I50
sS'including'
p5359
I50
sS'numbers'
p5360
I50
sS'committee'
p5361
I50
sS'conserve'
p5362
I50
sS'canal'
p5363
I50
sS'pct'
p5364
I250
sS'interest'
p5365
I50
sS'fuel'
p5366
I5300
sS'today'
p5367
I50
sS'distillate'
p5368
I100
sS'residual'
p5369
I350
sS'crude'
p5370
I50
sS'increases'
p5371
I100
sS'aviation'
p5372
I50
sS'sulphur'
p5373
I100
sS'official'
p5374
I50
sS'proposals'
p5375
I50
sS'routes'
p5376
I50
sS'tonnes'
p5377
I100
sS'raises'
p5378
I100
ssg31
g32
sg33
(lp5379
sbsS'naphtha'
p5380
(i__main__
WordWeight
p5381
(dp5382
g4
(dp5383
S'heavy'
p5384
I50
sS'molasses'
p5385
I50
sS'ex-factory'
p5386
I50
sS'light'
p5387
I50
sS'company'
p5388
I50
sS'processing'
p5389
I50
sS'gasoline'
p5390
I50
sS'chemical'
p5391
I50
sS'discussions'
p5392
I50
sS'range'
p5393
I50
sS'naphtha'
p5394
I1200
sS'raises'
p5395
I50
sS'lpg'
p5396
I50
ssg31
g32
sg33
(lp5397
sbsS'palladium'
p5398
(i__main__
WordWeight
p5399
(dp5400
g4
(dp5401
S'platinum'
p5402
I150
sS'ounce'
p5403
I100
sS'palladium'
p5404
I500
ssg31
g32
sg33
(lp5405
sbsS'steel'
p5406
(i__main__
WordWeight
p5407
(dp5408
g4
(dp5409
S'restructure'
p5410
I50
sS'german'
p5411
I250
sS'domestic'
p5412
I100
sS'years'
p5413
I50
sS'attitude'
p5414
I50
sS'including'
p5415
I50
sS'predicts'
p5416
I50
sS'cuts'
p5417
I50
sS'taiwan'
p5418
I250
sS'access'
p5419
I50
sS'police'
p5420
I50
sS'mitsui'
p5421
I100
sS'debts'
p5422
I50
sS'pct'
p5423
I50
sS'nippon'
p5424
I250
sS'offers'
p5425
I50
sS'shipbreaker'
p5426
I50
sS'save'
p5427
I50
sS'worth'
p5428
I50
sS'steel'
p5429
I19450
sS'contention'
p5430
I50
sS'big'
p5431
I50
sS'miners'
p5432
I50
sS'retrain'
p5433
I100
sS'joint'
p5434
I50
sS'fall'
p5435
I50
sS'world'
p5436
I50
sS'trouble'
p5437
I50
sS'aluminum'
p5438
I100
sS'drop'
p5439
I50
sS'subsidising'
p5440
I50
sS'payments'
p5441
I50
sS'kawasaki'
p5442
I100
sS'heavy'
p5443
I50
sS'national'
p5444
I50
sS'taiwanese'
p5445
I50
sS'japanese'
p5446
I100
sS'closures'
p5447
I50
sS'inland'
p5448
I150
sS'yugoslavia'
p5449
I50
sS'bethlehem'
p5450
I650
sS'year'
p5451
I50
sS'textiles'
p5452
I50
sS'brazil'
p5453
I50
sS'imported'
p5454
I50
sS'voluntary'
p5455
I50
sS'increase'
p5456
I100
sS'state'
p5457
I50
sS'import'
p5458
I50
sS'processed'
p5459
I50
sS'curbs'
p5460
I50
sS'canam'
p5461
I50
sS'u.s.'
p5462
I100
sS'corp'
p5463
I50
sS'monitor'
p5464
I200
sS'ltv'
p5465
I150
sS'canadian'
p5466
I150
sS'country'
p5467
I100
sS'opportunities'
p5468
I50
sS'british'
p5469
I50
sS'products'
p5470
I50
sS'china'
p5471
I50
sS'argue'
p5472
I50
sS'major'
p5473
I200
sS'supply'
p5474
I50
sS'rising'
p5475
I100
sS'raises'
p5476
I50
sS'determine'
p5477
I50
sS'ailing'
p5478
I100
sS'tomorrow'
p5479
I50
sS'decline'
p5480
I50
sS'sheet'
p5481
I50
sS'system'
p5482
I50
sS'uss'
p5483
I50
sS'coal,'
p5484
I50
sS'brazilian'
p5485
I50
sS'proposal'
p5486
I100
sS'meeting'
p5487
I50
sS'yugoslavian'
p5488
I50
sS'cutbacks'
p5489
I50
sS'copperweld'
p5490
I50
sS'buy'
p5491
I50
sS'funds'
p5492
I50
sS'specialty'
p5493
I100
sS'finished'
p5494
I50
sS'demand'
p5495
I50
sS'prices'
p5496
I100
sS'yugoslav'
p5497
I50
sS'raising'
p5498
I50
sS'non-communist'
p5499
I100
sS'1990'
p5500
I50
sS'converter'
p5501
I50
sS'performers'
p5502
I50
sS'package'
p5503
I50
sS'mln'
p5504
I50
sS'future'
p5505
I50
sS'limit'
p5506
I50
sS'iron'
p5507
I250
sS'growing'
p5508
I50
sS'urging'
p5509
I50
sS'raw'
p5510
I50
sS'mi-tech'
p5511
I150
sS'guarding'
p5512
I50
sS'monitoring'
p5513
I50
sS'discussion'
p5514
I50
sS'largest'
p5515
I50
sS'korean'
p5516
I50
sS'development'
p5517
I50
sS'seoul'
p5518
I50
sS'hwa'
p5519
I50
sS'plan'
p5520
I100
sS'bangemann'
p5521
I50
sS'president'
p5522
I50
sS'types'
p5523
I50
sS'flat-rolled'
p5524
I50
sS'sectors'
p5525
I100
sS'chemicals'
p5526
I100
sS'dollar'
p5527
I50
sS'coal'
p5528
I100
sS'nisshin'
p5529
I50
sS'sets'
p5530
I50
sS'tonnes'
p5531
I100
sS'operate'
p5532
I50
ssg31
g32
sg33
(lp5533
sbsS'gnp'
p5534
(i__main__
WordWeight
p5535
(dp5536
g4
(dp5537
S'result'
p5538
I50
sS'sees'
p5539
I50
sS'point'
p5540
I50
sS'german'
p5541
I150
sS'december'
p5542
I50
sS'contribute'
p5543
I50
sS'share'
p5544
I100
sS'expects'
p5545
I50
sS'trade'
p5546
I100
sS'high'
p5547
I50
sS'bring'
p5548
I50
sS'full-year'
p5549
I50
sS'growth'
p5550
I50
sS'higher'
p5551
I50
sS'predicts'
p5552
I50
sS'year'
p5553
I100
sS'japan'
p5554
I150
sS'march'
p5555
I150
sS'impact'
p5556
I100
sS'1987'
p5557
I100
sS'year-on-year'
p5558
I50
sS'pct'
p5559
I800
sS'hitting'
p5560
I50
sS'increase'
p5561
I100
sS'nominal'
p5562
I50
sS'income'
p5563
I50
sS'expected'
p5564
I50
sS'performance'
p5565
I50
sS'percentage'
p5566
I50
sS'receipts'
p5567
I50
sS'showing'
p5568
I50
sS'october/december'
p5569
I100
sS'economy'
p5570
I50
sS'real'
p5571
I550
sS'swedish'
p5572
I50
sS'product'
p5573
I900
sS'terms'
p5574
I100
sS'government'
p5575
I50
sS'targeted'
p5576
I50
sS'dollar'
p5577
I50
sS'u.s.'
p5578
I50
sS'rise'
p5579
I50
sS'reported'
p5580
I50
sS'modest'
p5581
I50
sS'lowered'
p5582
I50
sS'worst'
p5583
I100
sS'news'
p5584
I50
sS'debt'
p5585
I50
sS'measured'
p5586
I150
sS'neda'
p5587
I50
sS'hints'
p5588
I50
sS'planning'
p5589
I50
sS'reaction'
p5590
I50
sS'gnp'
p5591
I13300
sS'target'
p5592
I50
sS'average'
p5593
I50
sS'suggests'
p5594
I50
sS'capita'
p5595
I50
sS'officials'
p5596
I50
sS'figures'
p5597
I100
sS'resources'
p5598
I50
sS'release'
p5599
I100
sS'today'
p5600
I50
sS'quarter'
p5601
I400
sS'reduced'
p5602
I50
sS'latest'
p5603
I50
ssg31
g32
sg33
(lp5604
sbsS'wool'
p5605
(i__main__
WordWeight
p5606
(dp5607
g4
(dp5608
S'wool'
p5609
I100
sS'crossbred'
p5610
I50
ssg31
g32
sg33
(lp5611
sbsS'citruspulp'
p5612
(i__main__
WordWeight
p5613
(dp5614
g4
(dp5615
S'tonnes'
p5616
I100
sS'citruspulp'
p5617
I200
ssg31
g32
sg33
(lp5618
sbsS'tapioca'
p5619
(i__main__
WordWeight
p5620
(dp5621
g4
(dp5622
S'suggested'
p5623
I50
sS'advantage'
p5624
I50
sS'quoted'
p5625
I50
sS'show'
p5626
I50
sS'german'
p5627
I100
sS'announces'
p5628
I50
sS'national'
p5629
I50
sS'competitive'
p5630
I50
sS'tapioca'
p5631
I1500
sS'prices'
p5632
I50
sS'thailand'
p5633
I50
sS'thai'
p5634
I100
sS'total'
p5635
I50
sS'announced'
p5636
I50
ssg31
g32
sg33
(lp5637
sbsS'lumber'
p5638
(i__main__
WordWeight
p5639
(dp5640
g4
(dp5641
S'softwood'
p5642
I300
sS'complying'
p5643
I100
sS'paper'
p5644
I50
sS'including'
p5645
I50
sS'market'
p5646
I50
sS'impact'
p5647
I50
sS'addition'
p5648
I50
sS'charge'
p5649
I100
sS'start'
p5650
I50
sS'stocks/paper'
p5651
I50
sS'health'
p5652
I100
sS'inch'
p5653
I50
sS'guarantees'
p5654
I50
sS'canada'
p5655
I50
sS'option'
p5656
I50
sS'felt'
p5657
I50
sS'oregon'
p5658
I50
sS'cutting'
p5659
I50
sS'chips'
p5660
I50
sS'dlrs'
p5661
I50
sS'scandinavian'
p5662
I50
sS'length'
p5663
I50
sS'lumber'
p5664
I3100
sS'export'
p5665
I50
ssg31
g32
sg33
(lp5666
sbsS'iron'
p5667
(i__main__
WordWeight
p5668
(dp5669
g4
(dp5670
S'set'
p5671
I50
sS'seaborne'
p5672
I100
sS'including'
p5673
I100
sS'loaded'
p5674
I50
sS'total'
p5675
I50
sS'ships'
p5676
I50
sS'extraction'
p5677
I50
sS'state'
p5678
I50
sS'program'
p5679
I50
sS'international'
p5680
I50
sS'include'
p5681
I50
sS'indian'
p5682
I150
sS'negotiate'
p5683
I50
sS'demand'
p5684
I50
sS'world'
p5685
I100
sS'yugoslav'
p5686
I100
sS'discuss'
p5687
I50
sS'steel'
p5688
I150
sS'american'
p5689
I50
sS'iron'
p5690
I3000
sS'tonnes'
p5691
I50
sS'mifergui-nimba'
p5692
I50
sS'pohang'
p5693
I50
ssg31
g32
sg33
(lp5694
sbsS'cake'
p5695
(i__main__
WordWeight
p5696
(dp5697
g4
(dp5698
S'cake'
p5699
I200
sS'copra'
p5700
I50
sS'meal'
p5701
I50
ssg31
g32
sg33
(lp5702
sbsS'cornglutenfeed'
p5703
(i__main__
WordWeight
p5704
(dp5705
g4
(dp5706
S'cornglutenfeed'
p5707
I100
sS'mln'
p5708
I50
ssg31
g32
sg33
(lp5709
sbsS'sorghum'
p5710
(i__main__
WordWeight
p5711
(dp5712
g4
(dp5713
S'tons'
p5714
I50
sS'extended'
p5715
I50
sS'including'
p5716
I50
sS'sown'
p5717
I50
sS'soybean'
p5718
I50
sS'total'
p5719
I50
sS'cotton'
p5720
I50
sS'cotton,'
p5721
I50
sS'maize'
p5722
I550
sS'sunflower'
p5723
I100
sS'brackets'
p5724
I50
sS'reluctant'
p5725
I50
sS'usdaprj-g'
p5726
I50
sS'pct'
p5727
I100
sS'acres'
p5728
I100
sS'planted'
p5729
I50
sS'barley'
p5730
I100
sS'department'
p5731
I50
sS'figures'
p5732
I50
sS'weekly'
p5733
I50
sS'domest'
p5734
I50
sS'feedgrains'
p5735
I50
sS'week'
p5736
I50
sS'exports'
p5737
I50
sS'corn,'
p5738
I50
sS'august'
p5739
I50
sS'nil'
p5740
I50
sS'corn'
p5741
I650
sS'earlier'
p5742
I50
sS'volume'
p5743
I50
sS'harvest'
p5744
I50
sS'bushels'
p5745
I50
sS'dlrs'
p5746
I100
sS'short'
p5747
I50
sS'crops'
p5748
I50
sS'january'
p5749
I50
sS'dollars'
p5750
I50
sS'mln'
p5751
I50
sS'rate'
p5752
I50
sS'grain'
p5753
I150
sS'forecast'
p5754
I50
sS'10,353,700,'
p5755
I50
sS'tonnes'
p5756
I200
sS'sorghum'
p5757
I7900
sS'ports'
p5758
I50
sS'bushel'
p5759
I150
ssg31
g32
sg33
(lp5760
sbsS'coconut'
p5761
(i__main__
WordWeight
p5762
(dp5763
g4
(dp5764
S'kernel'
p5765
I150
sS'coconut'
p5766
I6000
sS'show'
p5767
I50
sS'imports'
p5768
I50
sS'philippine'
p5769
I600
sS'mission'
p5770
I50
sS'trade'
p5771
I50
sS'palm'
p5772
I50
sS'total'
p5773
I100
sS'quality'
p5774
I100
sS'debate'
p5775
I50
sS'adding'
p5776
I100
sS'united'
p5777
I50
sS'imported'
p5778
I50
sS'system'
p5779
I50
sS'pct'
p5780
I100
sS'production'
p5781
I50
sS'expected'
p5782
I100
sS'five-year'
p5783
I100
sS'sunflowerseed'
p5784
I50
sS'oil'
p5785
I200
sS'dependent'
p5786
I100
sS'appointments'
p5787
I50
sS'dessicated'
p5788
I50
sS'tonnes'
p5789
I50
sS'prices'
p5790
I100
sS'producing'
p5791
I100
sS'dlrs'
p5792
I50
sS'crops'
p5793
I100
sS'products'
p5794
I50
sS'fresh'
p5795
I100
sS'tariffs'
p5796
I50
ssg31
g32
sg33
(lp5797
sbsS'reserves'
p5798
(i__main__
WordWeight
p5799
(dp5800
g4
(dp5801
S'supply'
p5802
I50
sS'u.k.'
p5803
I250
sS'japan'
p5804
I50
sS'gold'
p5805
I500
sS'mexico'
p5806
I100
sS"mexico's"
p5807
I50
sS'dollar'
p5808
I150
sS'expects'
p5809
I50
sS'month'
p5810
I50
sS'high'
p5811
I50
sS'currency'
p5812
I1100
sS'reserves'
p5813
I22950
sS'including'
p5814
I150
sS'year'
p5815
I50
sS'terms'
p5816
I50
sS'taiwan'
p5817
I50
sS'estimated'
p5818
I50
sS"cd's"
p5819
I50
sS'march'
p5820
I50
sS'gross'
p5821
I50
sS'revived'
p5822
I50
sS'total'
p5823
I150
sS'earned'
p5824
I50
sS'imf'
p5825
I50
sS'rebuild'
p5826
I100
sS'show'
p5827
I50
sS'pct'
p5828
I50
sS'considerable'
p5829
I50
sS'increase'
p5830
I100
sS'reuters'
p5831
I50
sS'rates'
p5832
I50
sS'peru'
p5833
I100
sS'accumulating'
p5834
I50
sS'expected'
p5835
I50
sS'francs'
p5836
I100
sS'net'
p5837
I250
sS'breakdown'
p5838
I100
sS'danish'
p5839
I150
sS'affected'
p5840
I50
sS'exchange'
p5841
I2100
sS'sharply,'
p5842
I50
sS'funds'
p5843
I50
sS'rise'
p5844
I300
sS'monetary'
p5845
I100
sS'french'
p5846
I100
sS'ecu'
p5847
I50
sS'external'
p5848
I100
sS'cushion'
p5849
I50
sS'international'
p5850
I300
sS'thailand'
p5851
I50
sS'reporters'
p5852
I100
sS'stable'
p5853
I50
sS'australian'
p5854
I50
sS'bank'
p5855
I350
sS'non-currency'
p5856
I100
sS'billion'
p5857
I50
sS'dlrs'
p5858
I100
sS'february'
p5859
I100
sS'commenting'
p5860
I50
sS'actual'
p5861
I150
sS'january'
p5862
I50
sS'moved'
p5863
I50
sS'official'
p5864
I750
sS'foreign'
p5865
I1250
sS'record'
p5866
I100
sS'underlying'
p5867
I50
sS'rising'
p5868
I100
sS'diversify'
p5869
I50
sS'end-february'
p5870
I50
sS'surge'
p5871
I50
ssg31
g32
sg33
(lp5872
sbsS'ship'
p5873
(i__main__
WordWeight
p5874
(dp5875
g4
(dp5876
S'load'
p5877
I50
sS'foreign'
p5878
I100
sS'outlook'
p5879
I50
sS'german'
p5880
I100
sS'caused'
p5881
I50
sS'cruise'
p5882
I50
sS'reduce'
p5883
I50
sS'owned'
p5884
I50
sS'stability'
p5885
I50
sS'growth'
p5886
I50
sS'corp'
p5887
I50
sS'pivot'
p5888
I50
sS'navy'
p5889
I50
sS'japan'
p5890
I150
sS'ship'
p5891
I8800
sS'research'
p5892
I250
sS'occupied'
p5893
I100
sS'check'
p5894
I50
sS'market'
p5895
I50
sS'hit'
p5896
I50
sS'cargo'
p5897
I50
sS'kuwaiti'
p5898
I250
sS'container'
p5899
I50
sS'raise'
p5900
I50
sS'gulf'
p5901
I50
sS'turkish'
p5902
I100
sS'agency'
p5903
I50
sS'refloat'
p5904
I100
sS'vessels'
p5905
I50
sS'orders'
p5906
I50
sS'attack'
p5907
I50
sS'income'
p5908
I50
sS'time'
p5909
I50
sS'ordinary'
p5910
I50
sS'type'
p5911
I100
sS'board'
p5912
I50
sS'merchant'
p5913
I50
sS'tankers'
p5914
I50
sS'wheat'
p5915
I50
sS'mauritania'
p5916
I50
sS'attention'
p5917
I50
sS'yesterday'
p5918
I50
sS'thoresen'
p5919
I50
sS'diversifying'
p5920
I50
sS'protection'
p5921
I50
sS'liberian'
p5922
I50
sS'french'
p5923
I50
sS'reporters'
p5924
I50
sS'front'
p5925
I50
sS'italy'
p5926
I50
sS'provision'
p5927
I50
sS'states-flag'
p5928
I50
sS'aid'
p5929
I50
sS'night'
p5930
I50
sS'financing'
p5931
I50
sS'trucks'
p5932
I50
sS'spill'
p5933
I50
sS'reducing'
p5934
I50
sS'signal'
p5935
I50
sS'ministry'
p5936
I50
sS'sells'
p5937
I50
sS'morning'
p5938
I50
sS'april'
p5939
I50
sS'ussr'
p5940
I50
sS'survey'
p5941
I150
sS'searched'
p5942
I50
sS'seaway'
p5943
I50
sS'diversify'
p5944
I50
sS'soviet'
p5945
I50
sS'jersey'
p5946
I50
ssg31
g32
sg33
(lp5947
sbsS'cotton'
p5948
(i__main__
WordWeight
p5949
(dp5950
g4
(dp5951
S'livestock'
p5952
I50
sS'producer'
p5953
I50
sS'month'
p5954
I50
sS'sources'
p5955
I50
sS'including'
p5956
I50
sS'new-crop'
p5957
I50
sS'japan'
p5958
I50
sS'forecast'
p5959
I50
sS'current'
p5960
I50
sS'peanut'
p5961
I50
sS'importer'
p5962
I50
sS'pct'
p5963
I50
sS'acres'
p5964
I100
sS'planted'
p5965
I50
sS'peanuts'
p5966
I50
sS'oct'
p5967
I50
sS'texas'
p5968
I300
sS'tanzanian'
p5969
I50
sS'early'
p5970
I50
sS'report'
p5971
I50
sS'exporters'
p5972
I50
sS'crops'
p5973
I50
sS'morning'
p5974
I50
sS'ussr'
p5975
I100
sS'weather'
p5976
I50
sS'pima'
p5977
I50
sS'gathered'
p5978
I50
sS'meal'
p5979
I100
sS'national'
p5980
I100
sS'crop'
p5981
I100
sS'export'
p5982
I150
sS'result'
p5983
I50
sS'year'
p5984
I100
sS'estimated'
p5985
I50
sS'bales'
p5986
I200
sS'brazil'
p5987
I100
sS'farmers'
p5988
I50
sS'freer'
p5989
I50
sS'certificated'
p5990
I200
sS'increase'
p5991
I100
sS'state'
p5992
I50
sS'import'
p5993
I200
sS'u.s.'
p5994
I150
sS'feedgrains'
p5995
I100
sS'program'
p5996
I50
sS'fiber'
p5997
I100
sS'exchange'
p5998
I100
sS'corn'
p5999
I50
sS'activity'
p6000
I50
sS'reported'
p6001
I100
sS'california'
p6002
I50
sS'york'
p6003
I250
sS'approval'
p6004
I50
sS'counties'
p6005
I50
sS'dlrs'
p6006
I50
sS'central'
p6007
I50
sS'country'
p6008
I50
sS'yarn'
p6009
I50
sS'american'
p6010
I50
sS'grain'
p6011
I100
sS'analysts'
p6012
I50
sS'china'
p6013
I100
sS'pakistan'
p6014
I200
sS'soybeans'
p6015
I50
sS'pays'
p6016
I50
sS'loan'
p6017
I50
sS'restrict'
p6018
I50
sS'production'
p6019
I50
sS'floors'
p6020
I50
sS'staple'
p6021
I50
sS'feedgrain'
p6022
I50
sS'basis'
p6023
I50
sS'due'
p6024
I50
sS'handler'
p6025
I150
sS'stillmann'
p6026
I50
sS'buy'
p6027
I100
sS'offered'
p6028
I50
sS'ascs'
p6029
I50
sS'demand'
p6030
I50
sS'specialists'
p6031
I50
sS'buying'
p6032
I50
sS'1986/87'
p6033
I50
sS'grains'
p6034
I50
sS'state-owned'
p6035
I50
sS'record'
p6036
I50
sS'regions'
p6037
I50
sS'growing'
p6038
I50
sS'hampering'
p6039
I50
sS'storing'
p6040
I50
sS'lbs'
p6041
I100
sS'figures'
p6042
I50
sS'cents'
p6043
I50
sS'imports'
p6044
I100
sS'sales'
p6045
I100
sS'raw'
p6046
I250
sS'daily'
p6047
I50
sS'price'
p6048
I50
sS'cotton'
p6049
I18700
sS'paulo'
p6050
I50
sS'inch'
p6051
I100
sS'products'
p6052
I100
sS'higher'
p6053
I50
sS'breakdown'
p6054
I50
sS'added'
p6055
I50
sS'bale'
p6056
I50
sS'upland'
p6057
I800
sS'land'
p6058
I50
sS'factors'
p6059
I50
sS'echoed'
p6060
I50
sS'traditional'
p6061
I50
sS'tonnes'
p6062
I150
sS'soviet'
p6063
I100
ssg31
g32
sg33
(lp6064
sbsS'hog'
p6065
(i__main__
WordWeight
p6066
(dp6067
g4
(dp6068
S'hog'
p6069
I4200
sS'lbs'
p6070
I50
sS'based'
p6071
I50
sS'heinold'
p6072
I100
sS'company'
p6073
I50
sS'disease'
p6074
I50
sS'levitt'
p6075
I50
sS'high'
p6076
I50
sS'fact'
p6077
I50
sS'increase'
p6078
I100
sS'boost'
p6079
I50
sS'saturday'
p6080
I100
sS'today'
p6081
I650
sS'shows'
p6082
I50
ssg31
g32
sg33
(lp6083
sbsS'castor'
p6084
(i__main__
WordWeight
p6085
(dp6086
g4
(dp6087
S'gems'
p6088
I50
sS'castor'
p6089
I300
sS'1986/87'
p6090
I50
sS'india'
p6091
I50
ssg31
g32
sg33
(lp6092
sbsS'rye'
p6093
(i__main__
WordWeight
p6094
(dp6095
g4
(dp6096
S'rye'
p6097
I200
sS'winter'
p6098
I50
sS'oats'
p6099
I50
ssg31
g32
sg33
(lp6100
sbsS'rubber'
p6101
(i__main__
WordWeight
p6102
(dp6103
g4
(dp6104
S'producer'
p6105
I50
sS'move'
p6106
I50
sS'resistance'
p6107
I50
sS'month'
p6108
I50
sS'colombo'
p6109
I50
sS'zinc'
p6110
I50
sS'talks'
p6111
I50
sS'japan'
p6112
I150
sS'availability'
p6113
I50
sS'timber'
p6114
I50
sS'synthetic'
p6115
I50
sS'touches'
p6116
I50
sS'gold'
p6117
I50
sS'pct'
p6118
I150
sS'spread'
p6119
I50
sS'resolved'
p6120
I50
sS'division'
p6121
I50
sS'coffee'
p6122
I50
sS'affected'
p6123
I50
sS'government'
p6124
I100
sS'contracts'
p6125
I50
sS'regional'
p6126
I50
sS'expects'
p6127
I50
sS'diseased'
p6128
I50
sS'progress'
p6129
I50
sS'world'
p6130
I150
sS'stabilize'
p6131
I50
sS'countries'
p6132
I100
sS'january'
p6133
I50
sS'malaysian'
p6134
I350
sS'shortage'
p6135
I100
sS'augur'
p6136
I50
sS'security'
p6137
I50
sS'gazetted'
p6138
I50
sS'tea'
p6139
I100
sS'malaysia'
p6140
I50
sS'trading'
p6141
I50
sS'hammer'
p6142
I50
sS'affects'
p6143
I50
sS'transactions'
p6144
I50
sS'cess'
p6145
I50
sS'cooperation'
p6146
I50
sS'crude'
p6147
I50
sS'international'
p6148
I50
sS'accord'
p6149
I50
sS'assured'
p6150
I50
sS'reaching'
p6151
I50
sS'importance'
p6152
I50
sS'free'
p6153
I100
sS'thailand'
p6154
I50
sS'raise'
p6155
I50
sS'reaction'
p6156
I50
sS'trades'
p6157
I50
sS'april'
p6158
I50
sS'uproot'
p6159
I50
sS'major'
p6160
I50
sS'features'
p6161
I50
sS'linking'
p6162
I50
sS'production'
p6163
I50
sS'kobe'
p6164
I100
sS'confidence'
p6165
I50
sS'sheet'
p6166
I100
sS'molded'
p6167
I150
sS'union'
p6168
I50
sS'disposed'
p6169
I50
sS'planted'
p6170
I100
sS"int'l"
p6171
I50
sS'duties'
p6172
I50
sS'adopts'
p6173
I50
sS'selling'
p6174
I50
sS'hua'
p6175
I50
sS'broke'
p6176
I50
sS'demand'
p6177
I50
sS'prices'
p6178
I50
sS'crepe'
p6179
I50
sS'thai'
p6180
I150
sS'buying'
p6181
I100
sS'wintering'
p6182
I50
sS'tocom'
p6183
I50
sS'mln'
p6184
I50
sS'exports'
p6185
I50
sS'orchards'
p6186
I50
sS'sharp'
p6187
I50
sS'physical'
p6188
I50
sS'sell'
p6189
I100
sS'united'
p6190
I50
sS'mechanism'
p6191
I50
sS'rubber'
p6192
I17400
sS'details'
p6193
I50
sS'rupiah'
p6194
I50
sS'stock'
p6195
I50
sS'elements'
p6196
I50
sS'singapore'
p6197
I100
sS'sugarcane'
p6198
I50
sS'price'
p6199
I50
sS'hectares'
p6200
I50
sS'lankan'
p6201
I50
sS'lanka'
p6202
I50
sS'expand'
p6203
I50
sS'natural'
p6204
I1850
sS'indonesia'
p6205
I50
sS'disease'
p6206
I50
sS'tonnes'
p6207
I50
sS'quantity'
p6208
I50
ssg31
g32
sg33
(lp6209
sbsS'tin'
p6210
(i__main__
WordWeight
p6211
(dp6212
g4
(dp6213
S'stockpiled'
p6214
I200
sS'tonne'
p6215
I50
sS'major'
p6216
I150
sS'consensus'
p6217
I50
sS'franc'
p6218
I50
sS'grade'
p6219
I50
sS'lack'
p6220
I50
sS'influence'
p6221
I50
sS'sales'
p6222
I50
sS'fellow'
p6223
I50
sS'restrict'
p6224
I50
sS'export'
p6225
I50
sS'asian'
p6226
I50
sS'levied'
p6227
I50
sS'inorganic'
p6228
I50
sS'curb'
p6229
I50
sS'linked'
p6230
I50
sS'market'
p6231
I50
sS'reduced'
p6232
I50
sS'member'
p6233
I50
sS'cut'
p6234
I50
sS'publishing'
p6235
I50
sS'halved'
p6236
I50
sS'asean'
p6237
I50
sS'dollar-based'
p6238
I50
sS'pct'
p6239
I50
sS'rubber'
p6240
I50
sS'stopped'
p6241
I50
sS'tin'
p6242
I14300
sS'reuters'
p6243
I50
sS'lumpur'
p6244
I50
sS'supplies'
p6245
I50
sS'international'
p6246
I1250
sS'governments'
p6247
I50
sS'supports'
p6248
I50
sS'price'
p6249
I250
sS'european'
p6250
I50
sS'sacking'
p6251
I50
sS'collapse'
p6252
I50
sS'year'
p6253
I50
sS'u.s.'
p6254
I50
sS'sole'
p6255
I50
sS'spot'
p6256
I150
sS'occurred'
p6257
I50
sS'disallow'
p6258
I50
sS'producers'
p6259
I50
sS'bolivian'
p6260
I50
sS'exported'
p6261
I50
sS'rationale'
p6262
I50
sS'filed'
p6263
I50
sS'put'
p6264
I50
sS'world'
p6265
I150
sS'thai'
p6266
I100
sS'understanding'
p6267
I50
sS'weekend'
p6268
I50
sS'lme'
p6269
I100
sS'association'
p6270
I450
sS'aid'
p6271
I50
sS'high'
p6272
I50
sS'resulting'
p6273
I50
sS'extension'
p6274
I50
sS'state-owned'
p6275
I50
sS'ring'
p6276
I50
sS'malaysian'
p6277
I50
sS'daily'
p6278
I100
sS'original'
p6279
I50
sS'gsa'
p6280
I100
sS'paralysed'
p6281
I50
sS'continue'
p6282
I50
sS'limit'
p6283
I50
sS'faces'
p6284
I50
sS'tonnes'
p6285
I500
sS'argue'
p6286
I50
sS'studies'
p6287
I50
sS'bulletin'
p6288
I50
sS'wind'
p6289
I100
ssg31
g32
sg33
(lp6290
sbsS'oat'
p6291
(i__main__
WordWeight
p6292
(dp6293
g4
(dp6294
S'oat'
p6295
I100
sS'mln'
p6296
I50
ssg31
g32
sg33
(lp6297
sbsS'belly'
p6298
(i__main__
WordWeight
p6299
(dp6300
g4
(dp6301
S'pork'
p6302
I50
sS'negative'
p6303
I50
sS'missouri'
p6304
I50
sS'belly'
p6305
I400
sS'called'
p6306
I50
ssg31
g32
sg33
(lp6307
sbsS'income'
p6308
(i__main__
WordWeight
p6309
(dp6310
g4
(dp6311
S'withheld'
p6312
I50
sS'personal'
p6313
I950
sS'disposable'
p6314
I100
sS'rise'
p6315
I50
sS'june'
p6316
I50
sS'month'
p6317
I50
sS'april'
p6318
I50
sS'production'
p6319
I50
sS'income'
p6320
I3100
sS'department'
p6321
I50
sS'slowdown'
p6322
I100
sS'local'
p6323
I50
ssg31
g32
sg33
(lp6324
sbsS'rupiah'
p6325
(i__main__
WordWeight
p6326
(dp6327
g4
(dp6328
S'indonesian'
p6329
I100
sS'rupiah'
p6330
I400
sS'risen'
p6331
I50
sS'month'
p6332
I50
ssg31
g32
sg33
(lp6333
sbsS'oil'
p6334
(i__main__
WordWeight
p6335
(dp6336
g4
(dp6337
S'coconut'
p6338
I900
sS'female'
p6339
I100
sS'fish'
p6340
I50
sS'fall'
p6341
I100
sS'soyabean'
p6342
I300
sS'years'
p6343
I100
sS'high'
p6344
I150
sS'malaysia'
p6345
I150
sS'palm'
p6346
I11550
sS'soybean'
p6347
I3250
sS'year'
p6348
I50
sS'soy'
p6349
I150
sS'refined'
p6350
I100
sS'newsletter'
p6351
I500
sS'tropical'
p6352
I150
sS'calendar'
p6353
I150
sS'rape'
p6354
I400
sS'sandalwood'
p6355
I50
sS'1987'
p6356
I150
sS'castor'
p6357
I200
sS'sunflower'
p6358
I600
sS'sun'
p6359
I200
sS'cooking'
p6360
I150
sS'diesel'
p6361
I150
sS'system'
p6362
I50
sS'traders'
p6363
I100
sS'veg'
p6364
I600
sS'groundnut'
p6365
I400
sS'bloc'
p6366
I50
sS'crude'
p6367
I100
sS'criticises'
p6368
I100
sS'include'
p6369
I50
sS'sunflowerseed'
p6370
I800
sS'exports'
p6371
I50
sS'oil'
p6372
I60500
sS'oilmeal/veg'
p6373
I50
sS'fat'
p6374
I600
sS'fats'
p6375
I50
sS'vegetable'
p6376
I3000
sS'levels'
p6377
I100
sS'rapeseed'
p6378
I1000
sS'sharply'
p6379
I100
sS'demand'
p6380
I50
sS'olive'
p6381
I200
sS'world'
p6382
I100
sS'marine'
p6383
I50
sS'reaction'
p6384
I150
sS'rbd'
p6385
I100
sS'edible'
p6386
I600
sS'raw'
p6387
I100
sS'cottonseed'
p6388
I300
sS'january'
p6389
I100
sS'malaysian'
p6390
I300
sS'groundnutseed'
p6391
I300
sS'soya'
p6392
I200
sS'threat'
p6393
I50
sS'relied'
p6394
I100
sS'tonnes'
p6395
I250
sS'greases'
p6396
I50
sS'meal'
p6397
I100
sS'linseed'
p6398
I300
ssg31
g32
sg33
(lp6399
sbsS'oilseed'
p6400
(i__main__
WordWeight
p6401
(dp6402
g4
(dp6403
S'india'
p6404
I100
sS'community'
p6405
I100
sS'fill'
p6406
I50
sS'seaforth'
p6407
I150
sS'france'
p6408
I50
sS'spokesman'
p6409
I100
sS'groundnut'
p6410
I50
sS'modification'
p6411
I50
sS'guarantees'
p6412
I50
sS'higher'
p6413
I50
sS'added'
p6414
I50
sS'finance'
p6415
I50
sS'nil'
p6416
I50
sS'oilseed'
p6417
I3500
sS'increases'
p6418
I50
sS'world'
p6419
I50
sS'drought'
p6420
I50
sS'ruled'
p6421
I50
sS'customer'
p6422
I50
sS'expanded'
p6423
I50
sS'mln'
p6424
I100
sS'asa'
p6425
I50
sS'american'
p6426
I50
sS'grain'
p6427
I200
sS'cargill'
p6428
I150
ssg31
g32
sg33
(lp6429
sbsS'rapeseed'
p6430
(i__main__
WordWeight
p6431
(dp6432
g4
(dp6433
S'oil'
p6434
I50
sS'wheat'
p6435
I100
sS'winter'
p6436
I50
sS'canadian'
p6437
I900
sS"china's"
p6438
I50
sS'flour'
p6439
I50
sS'crushings'
p6440
I50
sS'spring'
p6441
I50
sS'damage'
p6442
I50
sS'french'
p6443
I50
sS'cheaper'
p6444
I50
sS'polish'
p6445
I50
sS'hectares'
p6446
I50
sS'concentrate'
p6447
I50
sS'estimated'
p6448
I50
sS'rapeseed'
p6449
I4200
sS'year'
p6450
I100
sS'tonnes'
p6451
I200
sS'pct'
p6452
I50
sS'officials'
p6453
I50
sS'barley'
p6454
I50
ssg31
g32
sg33
(lp6455
sbsS'cpi'
p6456
(i__main__
WordWeight
p6457
(dp6458
g4
(dp6459
S'zealand'
p6460
I50
sS'cpi'
p6461
I1100
sS'february'
p6462
I50
sS'march'
p6463
I100
sS'index'
p6464
I50
sS'one-third'
p6465
I50
sS'pct'
p6466
I50
sS'month'
p6467
I50
sS'increase'
p6468
I50
sS'department'
p6469
I50
sS'latest'
p6470
I50
ssg31
g32
sg33
(lp6471
sbsS'potato'
p6472
(i__main__
WordWeight
p6473
(dp6474
g4
(dp6475
S'u.k.'
p6476
I50
sS'winter'
p6477
I100
sS'potato'
p6478
I1500
sS'winter/spring'
p6479
I50
sS'spring'
p6480
I250
sS'crop'
p6481
I50
sS'grain'
p6482
I50
sS'representations'
p6483
I50
sS'destroy'
p6484
I50
sS'london'
p6485
I100
ssg31
g32
sg33
(lp6486
sbsS'cottonseed'
p6487
(i__main__
WordWeight
p6488
(dp6489
g4
(dp6490
S'cottonseed'
p6491
I100
sS'rice'
p6492
I50
ssg31
g32
sg33
(lp6493
sbsS'metal'
p6494
(i__main__
WordWeight
p6495
(dp6496
g4
(dp6497
S'toxic'
p6498
I50
sS'metal'
p6499
I300
sS'rare'
p6500
I50
sS'london'
p6501
I50
ssg31
g32
sg33
(lp6502
sbs.